
build/ai_os.bin:     file format elf32-i386


Disassembly of section .text:

00200000 <USER_DATA_SELECTOR+0xfd2a2>:
  200000:	02 b0 ad 1b 03 00    	add    0x31bad(%eax),%dh
  200006:	00 00                	add    %al,(%eax)
  200008:	fb                   	sti
  200009:	4f                   	dec    %edi
  20000a:	52                   	push   %edx
  20000b:	e4 66                	in     $0x66,%al
  20000d:	90                   	nop
  20000e:	66 90                	xchg   %ax,%ax
  200010:	66 c7 05 00 80 0b 00 	movw   $0xe53,0xb8000
  200017:	53 0e
  200019:	bc 00 80 10 00       	mov    $0x108000,%esp
  20001e:	bf 00 80 10 00       	mov    $0x108000,%edi
  200023:	b9 00 0c 00 00       	mov    $0xc00,%ecx
  200028:	31 c0                	xor    %eax,%eax
  20002a:	f3 ab                	rep stos %eax,%es:(%edi)
  20002c:	bf 00 90 10 00       	mov    $0x109000,%edi
  200031:	b9 00 00 00 00       	mov    $0x0,%ecx
  200036:	89 c8                	mov    %ecx,%eax
  200038:	c1 e0 0c             	shl    $0xc,%eax
  20003b:	83 c8 03             	or     $0x3,%eax
  20003e:	89 04 8f             	mov    %eax,(%edi,%ecx,4)
  200041:	41                   	inc    %ecx
  200042:	81 f9 00 04 00 00    	cmp    $0x400,%ecx
  200048:	7c ec                	jl     200036 <task_queue_head+0xf202e>
  20004a:	bf 00 a0 10 00       	mov    $0x10a000,%edi
  20004f:	b9 00 00 00 00       	mov    $0x0,%ecx
  200054:	be 00 04 00 00       	mov    $0x400,%esi
  200059:	89 f0                	mov    %esi,%eax
  20005b:	c1 e0 0c             	shl    $0xc,%eax
  20005e:	83 c8 03             	or     $0x3,%eax
  200061:	89 04 8f             	mov    %eax,(%edi,%ecx,4)
  200064:	41                   	inc    %ecx
  200065:	46                   	inc    %esi
  200066:	81 f9 00 04 00 00    	cmp    $0x400,%ecx
  20006c:	7c eb                	jl     200059 <task_queue_head+0xf2051>
  20006e:	b8 00 90 10 00       	mov    $0x109000,%eax
  200073:	83 c8 03             	or     $0x3,%eax
  200076:	a3 00 80 10 00       	mov    %eax,0x108000
  20007b:	b8 00 a0 10 00       	mov    $0x10a000,%eax
  200080:	83 c8 03             	or     $0x3,%eax
  200083:	a3 04 80 10 00       	mov    %eax,0x108004
  200088:	b8 00 80 10 00       	mov    $0x108000,%eax
  20008d:	0f 22 d8             	mov    %eax,%cr3
  200090:	89 c3                	mov    %eax,%ebx
  200092:	0f 20 c0             	mov    %cr0,%eax
  200095:	0d 00 00 00 80       	or     $0x80000000,%eax
  20009a:	0f 22 c0             	mov    %eax,%cr0
  20009d:	eb 00                	jmp    20009f <task_queue_head+0xf2097>
  20009f:	53                   	push   %ebx
  2000a0:	e8 44 05 00 00       	call   2005e9 <task_queue_head+0xf25e1>
  2000a5:	83 c4 04             	add    $0x4,%esp
  2000a8:	fa                   	cli
  2000a9:	f4                   	hlt
  2000aa:	66 90                	xchg   %ax,%ax
  2000ac:	66 90                	xchg   %ax,%ax
  2000ae:	66 90                	xchg   %ax,%ax
  2000b0:	8b 44 24 04          	mov    0x4(%esp),%eax
  2000b4:	0f 01 18             	lidtl  (%eax)
  2000b7:	c3                   	ret
  2000b8:	66 90                	xchg   %ax,%ax
  2000ba:	66 90                	xchg   %ax,%ax
  2000bc:	66 90                	xchg   %ax,%ax
  2000be:	66 90                	xchg   %ax,%ax
  2000c0:	60                   	pusha
  2000c1:	66 8c d8             	mov    %ds,%ax
  2000c4:	50                   	push   %eax
  2000c5:	66 b8 10 00          	mov    $0x10,%ax
  2000c9:	8e d8                	mov    %eax,%ds
  2000cb:	8e c0                	mov    %eax,%es
  2000cd:	8e e0                	mov    %eax,%fs
  2000cf:	8e e8                	mov    %eax,%gs
  2000d1:	e8 d6 09 00 00       	call   200aac <task_queue_head+0xf2aa4>
  2000d6:	5b                   	pop    %ebx
  2000d7:	8e db                	mov    %ebx,%ds
  2000d9:	8e c3                	mov    %ebx,%es
  2000db:	8e e3                	mov    %ebx,%fs
  2000dd:	8e eb                	mov    %ebx,%gs
  2000df:	61                   	popa
  2000e0:	83 c4 08             	add    $0x8,%esp
  2000e3:	cf                   	iret
  2000e4:	60                   	pusha
  2000e5:	66 8c d8             	mov    %ds,%ax
  2000e8:	50                   	push   %eax
  2000e9:	66 b8 10 00          	mov    $0x10,%ax
  2000ed:	8e d8                	mov    %eax,%ds
  2000ef:	8e c0                	mov    %eax,%es
  2000f1:	8e e0                	mov    %eax,%fs
  2000f3:	8e e8                	mov    %eax,%gs
  2000f5:	e8 0c 0c 00 00       	call   200d06 <task_queue_head+0xf2cfe>
  2000fa:	5b                   	pop    %ebx
  2000fb:	8e db                	mov    %ebx,%ds
  2000fd:	8e c3                	mov    %ebx,%es
  2000ff:	8e e3                	mov    %ebx,%fs
  200101:	8e eb                	mov    %ebx,%gs
  200103:	61                   	popa
  200104:	83 c4 08             	add    $0x8,%esp
  200107:	cf                   	iret
  200108:	fa                   	cli
  200109:	6a 00                	push   $0x0
  20010b:	6a 00                	push   $0x0
  20010d:	eb b1                	jmp    2000c0 <task_queue_head+0xf20b8>
  20010f:	fa                   	cli
  200110:	6a 00                	push   $0x0
  200112:	6a 01                	push   $0x1
  200114:	eb aa                	jmp    2000c0 <task_queue_head+0xf20b8>
  200116:	fa                   	cli
  200117:	6a 00                	push   $0x0
  200119:	6a 02                	push   $0x2
  20011b:	eb a3                	jmp    2000c0 <task_queue_head+0xf20b8>
  20011d:	fa                   	cli
  20011e:	6a 00                	push   $0x0
  200120:	6a 03                	push   $0x3
  200122:	eb 9c                	jmp    2000c0 <task_queue_head+0xf20b8>
  200124:	fa                   	cli
  200125:	6a 00                	push   $0x0
  200127:	6a 04                	push   $0x4
  200129:	eb 95                	jmp    2000c0 <task_queue_head+0xf20b8>
  20012b:	fa                   	cli
  20012c:	6a 00                	push   $0x0
  20012e:	6a 05                	push   $0x5
  200130:	eb 8e                	jmp    2000c0 <task_queue_head+0xf20b8>
  200132:	fa                   	cli
  200133:	6a 00                	push   $0x0
  200135:	6a 06                	push   $0x6
  200137:	eb 87                	jmp    2000c0 <task_queue_head+0xf20b8>
  200139:	fa                   	cli
  20013a:	6a 00                	push   $0x0
  20013c:	6a 07                	push   $0x7
  20013e:	eb 80                	jmp    2000c0 <task_queue_head+0xf20b8>
  200140:	fa                   	cli
  200141:	6a 08                	push   $0x8
  200143:	e9 78 ff ff ff       	jmp    2000c0 <task_queue_head+0xf20b8>
  200148:	fa                   	cli
  200149:	6a 00                	push   $0x0
  20014b:	6a 09                	push   $0x9
  20014d:	e9 6e ff ff ff       	jmp    2000c0 <task_queue_head+0xf20b8>
  200152:	fa                   	cli
  200153:	6a 0a                	push   $0xa
  200155:	e9 66 ff ff ff       	jmp    2000c0 <task_queue_head+0xf20b8>
  20015a:	fa                   	cli
  20015b:	6a 0b                	push   $0xb
  20015d:	e9 5e ff ff ff       	jmp    2000c0 <task_queue_head+0xf20b8>
  200162:	fa                   	cli
  200163:	6a 0c                	push   $0xc
  200165:	e9 56 ff ff ff       	jmp    2000c0 <task_queue_head+0xf20b8>
  20016a:	fa                   	cli
  20016b:	6a 0d                	push   $0xd
  20016d:	e9 4e ff ff ff       	jmp    2000c0 <task_queue_head+0xf20b8>
  200172:	fa                   	cli
  200173:	6a 0e                	push   $0xe
  200175:	e9 46 ff ff ff       	jmp    2000c0 <task_queue_head+0xf20b8>
  20017a:	fa                   	cli
  20017b:	6a 00                	push   $0x0
  20017d:	6a 0f                	push   $0xf
  20017f:	e9 3c ff ff ff       	jmp    2000c0 <task_queue_head+0xf20b8>
  200184:	fa                   	cli
  200185:	6a 00                	push   $0x0
  200187:	6a 10                	push   $0x10
  200189:	e9 32 ff ff ff       	jmp    2000c0 <task_queue_head+0xf20b8>
  20018e:	fa                   	cli
  20018f:	6a 11                	push   $0x11
  200191:	e9 2a ff ff ff       	jmp    2000c0 <task_queue_head+0xf20b8>
  200196:	fa                   	cli
  200197:	6a 00                	push   $0x0
  200199:	6a 12                	push   $0x12
  20019b:	e9 20 ff ff ff       	jmp    2000c0 <task_queue_head+0xf20b8>
  2001a0:	fa                   	cli
  2001a1:	6a 00                	push   $0x0
  2001a3:	6a 13                	push   $0x13
  2001a5:	e9 16 ff ff ff       	jmp    2000c0 <task_queue_head+0xf20b8>
  2001aa:	fa                   	cli
  2001ab:	6a 00                	push   $0x0
  2001ad:	6a 14                	push   $0x14
  2001af:	e9 0c ff ff ff       	jmp    2000c0 <task_queue_head+0xf20b8>
  2001b4:	fa                   	cli
  2001b5:	6a 15                	push   $0x15
  2001b7:	e9 04 ff ff ff       	jmp    2000c0 <task_queue_head+0xf20b8>
  2001bc:	fa                   	cli
  2001bd:	6a 00                	push   $0x0
  2001bf:	6a 16                	push   $0x16
  2001c1:	e9 fa fe ff ff       	jmp    2000c0 <task_queue_head+0xf20b8>
  2001c6:	fa                   	cli
  2001c7:	6a 00                	push   $0x0
  2001c9:	6a 17                	push   $0x17
  2001cb:	e9 f0 fe ff ff       	jmp    2000c0 <task_queue_head+0xf20b8>
  2001d0:	fa                   	cli
  2001d1:	6a 00                	push   $0x0
  2001d3:	6a 18                	push   $0x18
  2001d5:	e9 e6 fe ff ff       	jmp    2000c0 <task_queue_head+0xf20b8>
  2001da:	fa                   	cli
  2001db:	6a 00                	push   $0x0
  2001dd:	6a 19                	push   $0x19
  2001df:	e9 dc fe ff ff       	jmp    2000c0 <task_queue_head+0xf20b8>
  2001e4:	fa                   	cli
  2001e5:	6a 00                	push   $0x0
  2001e7:	6a 1a                	push   $0x1a
  2001e9:	e9 d2 fe ff ff       	jmp    2000c0 <task_queue_head+0xf20b8>
  2001ee:	fa                   	cli
  2001ef:	6a 00                	push   $0x0
  2001f1:	6a 1b                	push   $0x1b
  2001f3:	e9 c8 fe ff ff       	jmp    2000c0 <task_queue_head+0xf20b8>
  2001f8:	fa                   	cli
  2001f9:	6a 00                	push   $0x0
  2001fb:	6a 1c                	push   $0x1c
  2001fd:	e9 be fe ff ff       	jmp    2000c0 <task_queue_head+0xf20b8>
  200202:	fa                   	cli
  200203:	6a 1d                	push   $0x1d
  200205:	e9 b6 fe ff ff       	jmp    2000c0 <task_queue_head+0xf20b8>
  20020a:	fa                   	cli
  20020b:	6a 1e                	push   $0x1e
  20020d:	e9 ae fe ff ff       	jmp    2000c0 <task_queue_head+0xf20b8>
  200212:	fa                   	cli
  200213:	6a 00                	push   $0x0
  200215:	6a 1f                	push   $0x1f
  200217:	e9 a4 fe ff ff       	jmp    2000c0 <task_queue_head+0xf20b8>
  20021c:	fa                   	cli
  20021d:	6a 00                	push   $0x0
  20021f:	6a 20                	push   $0x20
  200221:	e9 be fe ff ff       	jmp    2000e4 <task_queue_head+0xf20dc>
  200226:	fa                   	cli
  200227:	60                   	pusha
  200228:	66 8c d8             	mov    %ds,%ax
  20022b:	50                   	push   %eax
  20022c:	66 b8 10 00          	mov    $0x10,%ax
  200230:	8e d8                	mov    %eax,%ds
  200232:	8e c0                	mov    %eax,%es
  200234:	8e e0                	mov    %eax,%fs
  200236:	8e e8                	mov    %eax,%gs
  200238:	e8 55 11 00 00       	call   201392 <task_queue_head+0xf338a>
  20023d:	b0 20                	mov    $0x20,%al
  20023f:	e6 20                	out    %al,$0x20
  200241:	5b                   	pop    %ebx
  200242:	8e db                	mov    %ebx,%ds
  200244:	8e c3                	mov    %ebx,%es
  200246:	8e e3                	mov    %ebx,%fs
  200248:	8e eb                	mov    %ebx,%gs
  20024a:	61                   	popa
  20024b:	cf                   	iret
  20024c:	fa                   	cli
  20024d:	6a 00                	push   $0x0
  20024f:	6a 22                	push   $0x22
  200251:	e9 8e fe ff ff       	jmp    2000e4 <task_queue_head+0xf20dc>
  200256:	fa                   	cli
  200257:	6a 00                	push   $0x0
  200259:	6a 23                	push   $0x23
  20025b:	e9 84 fe ff ff       	jmp    2000e4 <task_queue_head+0xf20dc>
  200260:	fa                   	cli
  200261:	6a 00                	push   $0x0
  200263:	6a 24                	push   $0x24
  200265:	e9 7a fe ff ff       	jmp    2000e4 <task_queue_head+0xf20dc>
  20026a:	fa                   	cli
  20026b:	6a 00                	push   $0x0
  20026d:	6a 25                	push   $0x25
  20026f:	e9 70 fe ff ff       	jmp    2000e4 <task_queue_head+0xf20dc>
  200274:	fa                   	cli
  200275:	6a 00                	push   $0x0
  200277:	6a 26                	push   $0x26
  200279:	e9 66 fe ff ff       	jmp    2000e4 <task_queue_head+0xf20dc>
  20027e:	fa                   	cli
  20027f:	6a 00                	push   $0x0
  200281:	6a 27                	push   $0x27
  200283:	e9 5c fe ff ff       	jmp    2000e4 <task_queue_head+0xf20dc>
  200288:	fa                   	cli
  200289:	6a 00                	push   $0x0
  20028b:	6a 28                	push   $0x28
  20028d:	e9 52 fe ff ff       	jmp    2000e4 <task_queue_head+0xf20dc>
  200292:	fa                   	cli
  200293:	6a 00                	push   $0x0
  200295:	6a 29                	push   $0x29
  200297:	e9 48 fe ff ff       	jmp    2000e4 <task_queue_head+0xf20dc>
  20029c:	fa                   	cli
  20029d:	6a 00                	push   $0x0
  20029f:	6a 2a                	push   $0x2a
  2002a1:	e9 3e fe ff ff       	jmp    2000e4 <task_queue_head+0xf20dc>
  2002a6:	fa                   	cli
  2002a7:	6a 00                	push   $0x0
  2002a9:	6a 2b                	push   $0x2b
  2002ab:	e9 34 fe ff ff       	jmp    2000e4 <task_queue_head+0xf20dc>
  2002b0:	fa                   	cli
  2002b1:	6a 00                	push   $0x0
  2002b3:	6a 2c                	push   $0x2c
  2002b5:	e9 2a fe ff ff       	jmp    2000e4 <task_queue_head+0xf20dc>
  2002ba:	fa                   	cli
  2002bb:	6a 00                	push   $0x0
  2002bd:	6a 2d                	push   $0x2d
  2002bf:	e9 20 fe ff ff       	jmp    2000e4 <task_queue_head+0xf20dc>
  2002c4:	fa                   	cli
  2002c5:	6a 00                	push   $0x0
  2002c7:	6a 2e                	push   $0x2e
  2002c9:	e9 16 fe ff ff       	jmp    2000e4 <task_queue_head+0xf20dc>
  2002ce:	fa                   	cli
  2002cf:	6a 00                	push   $0x0
  2002d1:	6a 2f                	push   $0x2f
  2002d3:	e9 0c fe ff ff       	jmp    2000e4 <task_queue_head+0xf20dc>
  2002d8:	66 90                	xchg   %ax,%ax
  2002da:	66 90                	xchg   %ax,%ax
  2002dc:	66 90                	xchg   %ax,%ax
  2002de:	66 90                	xchg   %ax,%ax
  2002e0:	55                   	push   %ebp
  2002e1:	89 e5                	mov    %esp,%ebp
  2002e3:	8b 45 08             	mov    0x8(%ebp),%eax
  2002e6:	0f 22 d8             	mov    %eax,%cr3
  2002e9:	5d                   	pop    %ebp
  2002ea:	c3                   	ret
  2002eb:	55                   	push   %ebp
  2002ec:	89 e5                	mov    %esp,%ebp
  2002ee:	0f 20 c0             	mov    %cr0,%eax
  2002f1:	0d 00 00 00 80       	or     $0x80000000,%eax
  2002f6:	0f 22 c0             	mov    %eax,%cr0
  2002f9:	5d                   	pop    %ebp
  2002fa:	c3                   	ret
  2002fb:	66 90                	xchg   %ax,%ax
  2002fd:	66 90                	xchg   %ax,%ax
  2002ff:	90                   	nop
  200300:	56                   	push   %esi
  200301:	57                   	push   %edi
  200302:	8b 74 24 0c          	mov    0xc(%esp),%esi
  200306:	8b 7c 24 10          	mov    0x10(%esp),%edi
  20030a:	8b 44 24 08          	mov    0x8(%esp),%eax
  20030e:	89 46 1c             	mov    %eax,0x1c(%esi)
  200311:	8d 44 24 0c          	lea    0xc(%esp),%eax
  200315:	89 46 20             	mov    %eax,0x20(%esi)
  200318:	89 6e 18             	mov    %ebp,0x18(%esi)
  20031b:	9c                   	pushf
  20031c:	8f 46 24             	pop    0x24(%esi)
  20031f:	8b 67 20             	mov    0x20(%edi),%esp
  200322:	8b 6f 18             	mov    0x18(%edi),%ebp
  200325:	ff 77 24             	push   0x24(%edi)
  200328:	9d                   	popf
  200329:	ff 77 1c             	push   0x1c(%edi)
  20032c:	5f                   	pop    %edi
  20032d:	5e                   	pop    %esi
  20032e:	c3                   	ret
  20032f:	55                   	push   %ebp
  200330:	89 e5                	mov    %esp,%ebp
  200332:	53                   	push   %ebx
  200333:	83 ec 18             	sub    $0x18,%esp
  200336:	8b 55 08             	mov    0x8(%ebp),%edx
  200339:	8b 45 14             	mov    0x14(%ebp),%eax
  20033c:	88 55 e8             	mov    %dl,-0x18(%ebp)
  20033f:	88 45 e4             	mov    %al,-0x1c(%ebp)
  200342:	80 7d e8 0a          	cmpb   $0xa,-0x18(%ebp)
  200346:	75 1c                	jne    200364 <task_queue_head+0xf235c>
  200348:	c7 05 00 b0 10 00 00 	movl   $0x0,0x10b000
  20034f:	00 00 00
  200352:	a1 04 b0 10 00       	mov    0x10b004,%eax
  200357:	83 c0 01             	add    $0x1,%eax
  20035a:	a3 04 b0 10 00       	mov    %eax,0x10b004
  20035f:	e9 f6 00 00 00       	jmp    20045a <task_queue_head+0xf2452>
  200364:	80 7d e8 08          	cmpb   $0x8,-0x18(%ebp)
  200368:	0f 85 ab 00 00 00    	jne    200419 <task_queue_head+0xf2411>
  20036e:	a1 00 b0 10 00       	mov    0x10b000,%eax
  200373:	85 c0                	test   %eax,%eax
  200375:	7e 47                	jle    2003be <task_queue_head+0xf23b6>
  200377:	a1 00 b0 10 00       	mov    0x10b000,%eax
  20037c:	83 e8 01             	sub    $0x1,%eax
  20037f:	a3 00 b0 10 00       	mov    %eax,0x10b000
  200384:	66 0f be 45 e4       	movsbw -0x1c(%ebp),%ax
  200389:	c1 e0 08             	shl    $0x8,%eax
  20038c:	83 c8 20             	or     $0x20,%eax
  20038f:	89 c3                	mov    %eax,%ebx
  200391:	8b 0d 00 30 10 00    	mov    0x103000,%ecx
  200397:	8b 15 04 b0 10 00    	mov    0x10b004,%edx
  20039d:	89 d0                	mov    %edx,%eax
  20039f:	c1 e0 02             	shl    $0x2,%eax
  2003a2:	01 d0                	add    %edx,%eax
  2003a4:	c1 e0 04             	shl    $0x4,%eax
  2003a7:	89 c2                	mov    %eax,%edx
  2003a9:	a1 00 b0 10 00       	mov    0x10b000,%eax
  2003ae:	01 d0                	add    %edx,%eax
  2003b0:	01 c0                	add    %eax,%eax
  2003b2:	01 c8                	add    %ecx,%eax
  2003b4:	89 da                	mov    %ebx,%edx
  2003b6:	66 89 10             	mov    %dx,(%eax)
  2003b9:	e9 9c 00 00 00       	jmp    20045a <task_queue_head+0xf2452>
  2003be:	a1 04 b0 10 00       	mov    0x10b004,%eax
  2003c3:	85 c0                	test   %eax,%eax
  2003c5:	0f 8e 8f 00 00 00    	jle    20045a <task_queue_head+0xf2452>
  2003cb:	a1 04 b0 10 00       	mov    0x10b004,%eax
  2003d0:	83 e8 01             	sub    $0x1,%eax
  2003d3:	a3 04 b0 10 00       	mov    %eax,0x10b004
  2003d8:	c7 05 00 b0 10 00 4f 	movl   $0x4f,0x10b000
  2003df:	00 00 00
  2003e2:	66 0f be 45 e4       	movsbw -0x1c(%ebp),%ax
  2003e7:	c1 e0 08             	shl    $0x8,%eax
  2003ea:	83 c8 20             	or     $0x20,%eax
  2003ed:	89 c3                	mov    %eax,%ebx
  2003ef:	8b 0d 00 30 10 00    	mov    0x103000,%ecx
  2003f5:	8b 15 04 b0 10 00    	mov    0x10b004,%edx
  2003fb:	89 d0                	mov    %edx,%eax
  2003fd:	c1 e0 02             	shl    $0x2,%eax
  200400:	01 d0                	add    %edx,%eax
  200402:	c1 e0 04             	shl    $0x4,%eax
  200405:	89 c2                	mov    %eax,%edx
  200407:	a1 00 b0 10 00       	mov    0x10b000,%eax
  20040c:	01 d0                	add    %edx,%eax
  20040e:	01 c0                	add    %eax,%eax
  200410:	01 c8                	add    %ecx,%eax
  200412:	89 da                	mov    %ebx,%edx
  200414:	66 89 10             	mov    %dx,(%eax)
  200417:	eb 41                	jmp    20045a <task_queue_head+0xf2452>
  200419:	66 0f be 55 e8       	movsbw -0x18(%ebp),%dx
  20041e:	66 0f be 45 e4       	movsbw -0x1c(%ebp),%ax
  200423:	c1 e0 08             	shl    $0x8,%eax
  200426:	89 d3                	mov    %edx,%ebx
  200428:	09 c3                	or     %eax,%ebx
  20042a:	8b 0d 00 30 10 00    	mov    0x103000,%ecx
  200430:	8b 55 10             	mov    0x10(%ebp),%edx
  200433:	89 d0                	mov    %edx,%eax
  200435:	c1 e0 02             	shl    $0x2,%eax
  200438:	01 d0                	add    %edx,%eax
  20043a:	c1 e0 04             	shl    $0x4,%eax
  20043d:	89 c2                	mov    %eax,%edx
  20043f:	8b 45 0c             	mov    0xc(%ebp),%eax
  200442:	01 d0                	add    %edx,%eax
  200444:	01 c0                	add    %eax,%eax
  200446:	01 c8                	add    %ecx,%eax
  200448:	89 da                	mov    %ebx,%edx
  20044a:	66 89 10             	mov    %dx,(%eax)
  20044d:	a1 00 b0 10 00       	mov    0x10b000,%eax
  200452:	83 c0 01             	add    $0x1,%eax
  200455:	a3 00 b0 10 00       	mov    %eax,0x10b000
  20045a:	a1 00 b0 10 00       	mov    0x10b000,%eax
  20045f:	83 f8 4f             	cmp    $0x4f,%eax
  200462:	7e 17                	jle    20047b <task_queue_head+0xf2473>
  200464:	c7 05 00 b0 10 00 00 	movl   $0x0,0x10b000
  20046b:	00 00 00
  20046e:	a1 04 b0 10 00       	mov    0x10b004,%eax
  200473:	83 c0 01             	add    $0x1,%eax
  200476:	a3 04 b0 10 00       	mov    %eax,0x10b004
  20047b:	a1 04 b0 10 00       	mov    0x10b004,%eax
  200480:	83 f8 18             	cmp    $0x18,%eax
  200483:	0f 8e 80 00 00 00    	jle    200509 <task_queue_head+0xf2501>
  200489:	c7 45 f8 00 00 00 00 	movl   $0x0,-0x8(%ebp)
  200490:	eb 26                	jmp    2004b8 <task_queue_head+0xf24b0>
  200492:	a1 00 30 10 00       	mov    0x103000,%eax
  200497:	8b 55 f8             	mov    -0x8(%ebp),%edx
  20049a:	83 c2 50             	add    $0x50,%edx
  20049d:	01 d2                	add    %edx,%edx
  20049f:	01 d0                	add    %edx,%eax
  2004a1:	8b 15 00 30 10 00    	mov    0x103000,%edx
  2004a7:	8b 4d f8             	mov    -0x8(%ebp),%ecx
  2004aa:	01 c9                	add    %ecx,%ecx
  2004ac:	01 ca                	add    %ecx,%edx
  2004ae:	0f b7 00             	movzwl (%eax),%eax
  2004b1:	66 89 02             	mov    %ax,(%edx)
  2004b4:	83 45 f8 01          	addl   $0x1,-0x8(%ebp)
  2004b8:	81 7d f8 7f 07 00 00 	cmpl   $0x77f,-0x8(%ebp)
  2004bf:	7e d1                	jle    200492 <task_queue_head+0xf248a>
  2004c1:	c7 45 f4 80 07 00 00 	movl   $0x780,-0xc(%ebp)
  2004c8:	eb 22                	jmp    2004ec <task_queue_head+0xf24e4>
  2004ca:	66 0f be 45 e4       	movsbw -0x1c(%ebp),%ax
  2004cf:	c1 e0 08             	shl    $0x8,%eax
  2004d2:	83 c8 20             	or     $0x20,%eax
  2004d5:	89 c1                	mov    %eax,%ecx
  2004d7:	a1 00 30 10 00       	mov    0x103000,%eax
  2004dc:	8b 55 f4             	mov    -0xc(%ebp),%edx
  2004df:	01 d2                	add    %edx,%edx
  2004e1:	01 d0                	add    %edx,%eax
  2004e3:	89 ca                	mov    %ecx,%edx
  2004e5:	66 89 10             	mov    %dx,(%eax)
  2004e8:	83 45 f4 01          	addl   $0x1,-0xc(%ebp)
  2004ec:	81 7d f4 cf 07 00 00 	cmpl   $0x7cf,-0xc(%ebp)
  2004f3:	7e d5                	jle    2004ca <task_queue_head+0xf24c2>
  2004f5:	c7 05 00 b0 10 00 00 	movl   $0x0,0x10b000
  2004fc:	00 00 00
  2004ff:	c7 05 04 b0 10 00 18 	movl   $0x18,0x10b004
  200506:	00 00 00
  200509:	90                   	nop
  20050a:	8b 5d fc             	mov    -0x4(%ebp),%ebx
  20050d:	c9                   	leave
  20050e:	c3                   	ret
  20050f:	55                   	push   %ebp
  200510:	89 e5                	mov    %esp,%ebp
  200512:	56                   	push   %esi
  200513:	53                   	push   %ebx
  200514:	83 ec 14             	sub    $0x14,%esp
  200517:	8b 45 0c             	mov    0xc(%ebp),%eax
  20051a:	88 45 e4             	mov    %al,-0x1c(%ebp)
  20051d:	c7 45 f4 00 00 00 00 	movl   $0x0,-0xc(%ebp)
  200524:	eb 2e                	jmp    200554 <task_queue_head+0xf254c>
  200526:	0f be 5d e4          	movsbl -0x1c(%ebp),%ebx
  20052a:	8b 0d 04 b0 10 00    	mov    0x10b004,%ecx
  200530:	8b 15 00 b0 10 00    	mov    0x10b000,%edx
  200536:	8b 75 f4             	mov    -0xc(%ebp),%esi
  200539:	8b 45 08             	mov    0x8(%ebp),%eax
  20053c:	01 f0                	add    %esi,%eax
  20053e:	0f b6 00             	movzbl (%eax),%eax
  200541:	0f be c0             	movsbl %al,%eax
  200544:	53                   	push   %ebx
  200545:	51                   	push   %ecx
  200546:	52                   	push   %edx
  200547:	50                   	push   %eax
  200548:	e8 e2 fd ff ff       	call   20032f <task_queue_head+0xf2327>
  20054d:	83 c4 10             	add    $0x10,%esp
  200550:	83 45 f4 01          	addl   $0x1,-0xc(%ebp)
  200554:	8b 55 f4             	mov    -0xc(%ebp),%edx
  200557:	8b 45 08             	mov    0x8(%ebp),%eax
  20055a:	01 d0                	add    %edx,%eax
  20055c:	0f b6 00             	movzbl (%eax),%eax
  20055f:	84 c0                	test   %al,%al
  200561:	75 c3                	jne    200526 <task_queue_head+0xf251e>
  200563:	90                   	nop
  200564:	90                   	nop
  200565:	8d 65 f8             	lea    -0x8(%ebp),%esp
  200568:	5b                   	pop    %ebx
  200569:	5e                   	pop    %esi
  20056a:	5d                   	pop    %ebp
  20056b:	c3                   	ret
  20056c:	55                   	push   %ebp
  20056d:	89 e5                	mov    %esp,%ebp
  20056f:	53                   	push   %ebx
  200570:	83 ec 14             	sub    $0x14,%esp
  200573:	8b 45 08             	mov    0x8(%ebp),%eax
  200576:	88 45 e8             	mov    %al,-0x18(%ebp)
  200579:	c7 45 f8 00 00 00 00 	movl   $0x0,-0x8(%ebp)
  200580:	eb 47                	jmp    2005c9 <task_queue_head+0xf25c1>
  200582:	c7 45 f4 00 00 00 00 	movl   $0x0,-0xc(%ebp)
  200589:	eb 34                	jmp    2005bf <task_queue_head+0xf25b7>
  20058b:	66 0f be 45 e8       	movsbw -0x18(%ebp),%ax
  200590:	c1 e0 08             	shl    $0x8,%eax
  200593:	83 c8 20             	or     $0x20,%eax
  200596:	89 c3                	mov    %eax,%ebx
  200598:	8b 0d 00 30 10 00    	mov    0x103000,%ecx
  20059e:	8b 55 f8             	mov    -0x8(%ebp),%edx
  2005a1:	89 d0                	mov    %edx,%eax
  2005a3:	c1 e0 02             	shl    $0x2,%eax
  2005a6:	01 d0                	add    %edx,%eax
  2005a8:	c1 e0 04             	shl    $0x4,%eax
  2005ab:	89 c2                	mov    %eax,%edx
  2005ad:	8b 45 f4             	mov    -0xc(%ebp),%eax
  2005b0:	01 d0                	add    %edx,%eax
  2005b2:	01 c0                	add    %eax,%eax
  2005b4:	01 c8                	add    %ecx,%eax
  2005b6:	89 da                	mov    %ebx,%edx
  2005b8:	66 89 10             	mov    %dx,(%eax)
  2005bb:	83 45 f4 01          	addl   $0x1,-0xc(%ebp)
  2005bf:	83 7d f4 4f          	cmpl   $0x4f,-0xc(%ebp)
  2005c3:	7e c6                	jle    20058b <task_queue_head+0xf2583>
  2005c5:	83 45 f8 01          	addl   $0x1,-0x8(%ebp)
  2005c9:	83 7d f8 18          	cmpl   $0x18,-0x8(%ebp)
  2005cd:	7e b3                	jle    200582 <task_queue_head+0xf257a>
  2005cf:	c7 05 00 b0 10 00 00 	movl   $0x0,0x10b000
  2005d6:	00 00 00
  2005d9:	c7 05 04 b0 10 00 00 	movl   $0x0,0x10b004
  2005e0:	00 00 00
  2005e3:	90                   	nop
  2005e4:	8b 5d fc             	mov    -0x4(%ebp),%ebx
  2005e7:	c9                   	leave
  2005e8:	c3                   	ret
  2005e9:	55                   	push   %ebp
  2005ea:	89 e5                	mov    %esp,%ebp
  2005ec:	83 ec 38             	sub    $0x38,%esp
  2005ef:	c6 05 04 30 10 00 1f 	movb   $0x1f,0x103004
  2005f6:	0f b6 05 04 30 10 00 	movzbl 0x103004,%eax
  2005fd:	0f be c0             	movsbl %al,%eax
  200600:	50                   	push   %eax
  200601:	e8 66 ff ff ff       	call   20056c <task_queue_head+0xf2564>
  200606:	83 c4 04             	add    $0x4,%esp
  200609:	6a 0a                	push   $0xa
  20060b:	68 fc 29 10 00       	push   $0x1029fc
  200610:	e8 fa fe ff ff       	call   20050f <task_queue_head+0xf2507>
  200615:	83 c4 08             	add    $0x8,%esp
  200618:	8b 55 08             	mov    0x8(%ebp),%edx
  20061b:	89 d0                	mov    %edx,%eax
  20061d:	0f 22 d8             	mov    %eax,%cr3
  200620:	0f 20 c0             	mov    %cr0,%eax
  200623:	89 45 f4             	mov    %eax,-0xc(%ebp)
  200626:	8b 45 f4             	mov    -0xc(%ebp),%eax
  200629:	85 c0                	test   %eax,%eax
  20062b:	78 0d                	js     20063a <task_queue_head+0xf2632>
  20062d:	81 4d f4 00 00 00 80 	orl    $0x80000000,-0xc(%ebp)
  200634:	8b 45 f4             	mov    -0xc(%ebp),%eax
  200637:	0f 22 c0             	mov    %eax,%cr0
  20063a:	6a 0b                	push   $0xb
  20063c:	68 18 2a 10 00       	push   $0x102a18
  200641:	e8 c9 fe ff ff       	call   20050f <task_queue_head+0xf2507>
  200646:	83 c4 08             	add    $0x8,%esp
  200649:	83 ec 08             	sub    $0x8,%esp
  20064c:	6a 0b                	push   $0xb
  20064e:	ff 75 08             	push   0x8(%ebp)
  200651:	e8 47 16 00 00       	call   201c9d <task_queue_head+0xf3c95>
  200656:	83 c4 10             	add    $0x10,%esp
  200659:	83 ec 08             	sub    $0x8,%esp
  20065c:	6a 0b                	push   $0xb
  20065e:	68 4e 2a 10 00       	push   $0x102a4e
  200663:	e8 a7 fe ff ff       	call   20050f <task_queue_head+0xf2507>
  200668:	83 c4 10             	add    $0x10,%esp
  20066b:	0f 20 d8             	mov    %cr3,%eax
  20066e:	89 45 f0             	mov    %eax,-0x10(%ebp)
  200671:	83 ec 08             	sub    $0x8,%esp
  200674:	6a 0b                	push   $0xb
  200676:	68 50 2a 10 00       	push   $0x102a50
  20067b:	e8 8f fe ff ff       	call   20050f <task_queue_head+0xf2507>
  200680:	83 c4 10             	add    $0x10,%esp
  200683:	83 ec 08             	sub    $0x8,%esp
  200686:	6a 0b                	push   $0xb
  200688:	ff 75 f0             	push   -0x10(%ebp)
  20068b:	e8 0d 16 00 00       	call   201c9d <task_queue_head+0xf3c95>
  200690:	83 c4 10             	add    $0x10,%esp
  200693:	83 ec 08             	sub    $0x8,%esp
  200696:	6a 0b                	push   $0xb
  200698:	68 4e 2a 10 00       	push   $0x102a4e
  20069d:	e8 6d fe ff ff       	call   20050f <task_queue_head+0xf2507>
  2006a2:	83 c4 10             	add    $0x10,%esp
  2006a5:	c7 45 ec 00 00 00 00 	movl   $0x0,-0x14(%ebp)
  2006ac:	c7 45 e8 00 00 00 00 	movl   $0x0,-0x18(%ebp)
  2006b3:	0f 20 d8             	mov    %cr3,%eax
  2006b6:	89 45 f0             	mov    %eax,-0x10(%ebp)
  2006b9:	83 ec 08             	sub    $0x8,%esp
  2006bc:	6a 0b                	push   $0xb
  2006be:	68 72 2a 10 00       	push   $0x102a72
  2006c3:	e8 47 fe ff ff       	call   20050f <task_queue_head+0xf2507>
  2006c8:	83 c4 10             	add    $0x10,%esp
  2006cb:	83 ec 08             	sub    $0x8,%esp
  2006ce:	6a 0b                	push   $0xb
  2006d0:	ff 75 f0             	push   -0x10(%ebp)
  2006d3:	e8 c5 15 00 00       	call   201c9d <task_queue_head+0xf3c95>
  2006d8:	83 c4 10             	add    $0x10,%esp
  2006db:	83 ec 08             	sub    $0x8,%esp
  2006de:	6a 0b                	push   $0xb
  2006e0:	68 4e 2a 10 00       	push   $0x102a4e
  2006e5:	e8 25 fe ff ff       	call   20050f <task_queue_head+0xf2507>
  2006ea:	83 c4 10             	add    $0x10,%esp
  2006ed:	c7 45 e4 00 00 00 01 	movl   $0x1000000,-0x1c(%ebp)
  2006f4:	83 ec 04             	sub    $0x4,%esp
  2006f7:	ff 75 ec             	push   -0x14(%ebp)
  2006fa:	ff 75 e8             	push   -0x18(%ebp)
  2006fd:	ff 75 e4             	push   -0x1c(%ebp)
  200700:	e8 d7 0d 00 00       	call   2014dc <task_queue_head+0xf34d4>
  200705:	83 c4 10             	add    $0x10,%esp
  200708:	0f 20 d8             	mov    %cr3,%eax
  20070b:	89 45 f0             	mov    %eax,-0x10(%ebp)
  20070e:	83 ec 08             	sub    $0x8,%esp
  200711:	6a 0b                	push   $0xb
  200713:	68 90 2a 10 00       	push   $0x102a90
  200718:	e8 f2 fd ff ff       	call   20050f <task_queue_head+0xf2507>
  20071d:	83 c4 10             	add    $0x10,%esp
  200720:	83 ec 08             	sub    $0x8,%esp
  200723:	6a 0b                	push   $0xb
  200725:	ff 75 f0             	push   -0x10(%ebp)
  200728:	e8 70 15 00 00       	call   201c9d <task_queue_head+0xf3c95>
  20072d:	83 c4 10             	add    $0x10,%esp
  200730:	83 ec 08             	sub    $0x8,%esp
  200733:	6a 0b                	push   $0xb
  200735:	68 4e 2a 10 00       	push   $0x102a4e
  20073a:	e8 d0 fd ff ff       	call   20050f <task_queue_head+0xf2507>
  20073f:	83 c4 10             	add    $0x10,%esp
  200742:	e8 ef 0e 00 00       	call   201636 <task_queue_head+0xf362e>
  200747:	0f b6 05 04 30 10 00 	movzbl 0x103004,%eax
  20074e:	0f be c0             	movsbl %al,%eax
  200751:	83 ec 08             	sub    $0x8,%esp
  200754:	50                   	push   %eax
  200755:	68 b0 2a 10 00       	push   $0x102ab0
  20075a:	e8 b0 fd ff ff       	call   20050f <task_queue_head+0xf2507>
  20075f:	83 c4 10             	add    $0x10,%esp
  200762:	c7 45 e0 00 00 20 00 	movl   $0x200000,-0x20(%ebp)
  200769:	83 7d e0 00          	cmpl   $0x0,-0x20(%ebp)
  20076d:	0f 84 c0 00 00 00    	je     200833 <task_queue_head+0xf282b>
  200773:	83 ec 0c             	sub    $0xc,%esp
  200776:	ff 75 e0             	push   -0x20(%ebp)
  200779:	e8 e3 10 00 00       	call   201861 <task_queue_head+0xf3859>
  20077e:	83 c4 10             	add    $0x10,%esp
  200781:	0f b6 05 04 30 10 00 	movzbl 0x103004,%eax
  200788:	0f be c0             	movsbl %al,%eax
  20078b:	83 ec 08             	sub    $0x8,%esp
  20078e:	50                   	push   %eax
  20078f:	68 d7 2a 10 00       	push   $0x102ad7
  200794:	e8 76 fd ff ff       	call   20050f <task_queue_head+0xf2507>
  200799:	83 c4 10             	add    $0x10,%esp
  20079c:	e8 ce 10 00 00       	call   20186f <task_queue_head+0xf3867>
  2007a1:	e8 9f 01 00 00       	call   200945 <task_queue_head+0xf293d>
  2007a6:	e8 a5 05 00 00       	call   200d50 <task_queue_head+0xf2d48>
  2007ab:	e8 a4 1f 00 00       	call   202754 <task_queue_head+0xf474c>
  2007b0:	0f b6 05 04 30 10 00 	movzbl 0x103004,%eax
  2007b7:	0f be c0             	movsbl %al,%eax
  2007ba:	83 ec 08             	sub    $0x8,%esp
  2007bd:	50                   	push   %eax
  2007be:	68 10 2b 10 00       	push   $0x102b10
  2007c3:	e8 47 fd ff ff       	call   20050f <task_queue_head+0xf2507>
  2007c8:	83 c4 10             	add    $0x10,%esp
  2007cb:	e8 63 16 00 00       	call   201e33 <task_queue_head+0xf3e2b>
  2007d0:	0f b6 05 04 30 10 00 	movzbl 0x103004,%eax
  2007d7:	0f be c0             	movsbl %al,%eax
  2007da:	83 ec 08             	sub    $0x8,%esp
  2007dd:	50                   	push   %eax
  2007de:	68 33 2b 10 00       	push   $0x102b33
  2007e3:	e8 27 fd ff ff       	call   20050f <task_queue_head+0xf2507>
  2007e8:	83 c4 10             	add    $0x10,%esp
  2007eb:	0f b6 05 04 30 10 00 	movzbl 0x103004,%eax
  2007f2:	0f be c0             	movsbl %al,%eax
  2007f5:	83 ec 08             	sub    $0x8,%esp
  2007f8:	50                   	push   %eax
  2007f9:	68 4b 2b 10 00       	push   $0x102b4b
  2007fe:	e8 0c fd ff ff       	call   20050f <task_queue_head+0xf2507>
  200803:	83 c4 10             	add    $0x10,%esp
  200806:	c7 45 d4 62 2b 10 00 	movl   $0x102b62,-0x2c(%ebp)
  20080d:	c7 45 d8 00 00 00 00 	movl   $0x0,-0x28(%ebp)
  200814:	83 ec 08             	sub    $0x8,%esp
  200817:	8d 45 d4             	lea    -0x2c(%ebp),%eax
  20081a:	50                   	push   %eax
  20081b:	68 62 2b 10 00       	push   $0x102b62
  200820:	e8 e8 17 00 00       	call   20200d <task_queue_head+0xf4005>
  200825:	83 c4 10             	add    $0x10,%esp
  200828:	89 45 dc             	mov    %eax,-0x24(%ebp)
  20082b:	83 7d dc 00          	cmpl   $0x0,-0x24(%ebp)
  20082f:	79 2e                	jns    20085f <task_queue_head+0xf2857>
  200831:	eb 16                	jmp    200849 <task_queue_head+0xf2841>
  200833:	83 ec 08             	sub    $0x8,%esp
  200836:	6a 0c                	push   $0xc
  200838:	68 f4 2a 10 00       	push   $0x102af4
  20083d:	e8 cd fc ff ff       	call   20050f <task_queue_head+0xf2507>
  200842:	83 c4 10             	add    $0x10,%esp
  200845:	fa                   	cli
  200846:	f4                   	hlt
  200847:	eb fc                	jmp    200845 <task_queue_head+0xf283d>
  200849:	83 ec 08             	sub    $0x8,%esp
  20084c:	6a 0c                	push   $0xc
  20084e:	68 6c 2b 10 00       	push   $0x102b6c
  200853:	e8 b7 fc ff ff       	call   20050f <task_queue_head+0xf2507>
  200858:	83 c4 10             	add    $0x10,%esp
  20085b:	fa                   	cli
  20085c:	f4                   	hlt
  20085d:	eb fc                	jmp    20085b <task_queue_head+0xf2853>
  20085f:	0f b6 05 04 30 10 00 	movzbl 0x103004,%eax
  200866:	0f be c0             	movsbl %al,%eax
  200869:	83 ec 08             	sub    $0x8,%esp
  20086c:	50                   	push   %eax
  20086d:	68 95 2b 10 00       	push   $0x102b95
  200872:	e8 98 fc ff ff       	call   20050f <task_queue_head+0xf2507>
  200877:	83 c4 10             	add    $0x10,%esp
  20087a:	0f b6 05 04 30 10 00 	movzbl 0x103004,%eax
  200881:	0f be c0             	movsbl %al,%eax
  200884:	83 ec 08             	sub    $0x8,%esp
  200887:	50                   	push   %eax
  200888:	68 b0 2b 10 00       	push   $0x102bb0
  20088d:	e8 7d fc ff ff       	call   20050f <task_queue_head+0xf2507>
  200892:	83 c4 10             	add    $0x10,%esp
  200895:	83 ec 0c             	sub    $0xc,%esp
  200898:	6a 64                	push   $0x64
  20089a:	e8 25 1c 00 00       	call   2024c4 <task_queue_head+0xf44bc>
  20089f:	83 c4 10             	add    $0x10,%esp
  2008a2:	0f b6 05 04 30 10 00 	movzbl 0x103004,%eax
  2008a9:	0f be c0             	movsbl %al,%eax
  2008ac:	83 ec 08             	sub    $0x8,%esp
  2008af:	50                   	push   %eax
  2008b0:	68 d0 2b 10 00       	push   $0x102bd0
  2008b5:	e8 55 fc ff ff       	call   20050f <task_queue_head+0xf2507>
  2008ba:	83 c4 10             	add    $0x10,%esp
  2008bd:	0f b6 05 04 30 10 00 	movzbl 0x103004,%eax
  2008c4:	0f be c0             	movsbl %al,%eax
  2008c7:	83 ec 08             	sub    $0x8,%esp
  2008ca:	50                   	push   %eax
  2008cb:	68 f0 2b 10 00       	push   $0x102bf0
  2008d0:	e8 3a fc ff ff       	call   20050f <task_queue_head+0xf2507>
  2008d5:	83 c4 10             	add    $0x10,%esp
  2008d8:	f4                   	hlt
  2008d9:	eb fd                	jmp    2008d8 <task_queue_head+0xf28d0>
  2008db:	55                   	push   %ebp
  2008dc:	89 e5                	mov    %esp,%ebp
  2008de:	83 ec 0c             	sub    $0xc,%esp
  2008e1:	8b 4d 08             	mov    0x8(%ebp),%ecx
  2008e4:	8b 55 10             	mov    0x10(%ebp),%edx
  2008e7:	8b 45 14             	mov    0x14(%ebp),%eax
  2008ea:	88 4d fc             	mov    %cl,-0x4(%ebp)
  2008ed:	66 89 55 f8          	mov    %dx,-0x8(%ebp)
  2008f1:	88 45 f4             	mov    %al,-0xc(%ebp)
  2008f4:	0f b6 45 fc          	movzbl -0x4(%ebp),%eax
  2008f8:	8b 55 0c             	mov    0xc(%ebp),%edx
  2008fb:	66 89 14 c5 20 b0 10 	mov    %dx,0x10b020(,%eax,8)
  200902:	00
  200903:	8b 45 0c             	mov    0xc(%ebp),%eax
  200906:	c1 e8 10             	shr    $0x10,%eax
  200909:	89 c2                	mov    %eax,%edx
  20090b:	0f b6 45 fc          	movzbl -0x4(%ebp),%eax
  20090f:	66 89 14 c5 26 b0 10 	mov    %dx,0x10b026(,%eax,8)
  200916:	00
  200917:	0f b6 45 fc          	movzbl -0x4(%ebp),%eax
  20091b:	0f b7 55 f8          	movzwl -0x8(%ebp),%edx
  20091f:	66 89 14 c5 22 b0 10 	mov    %dx,0x10b022(,%eax,8)
  200926:	00
  200927:	0f b6 45 fc          	movzbl -0x4(%ebp),%eax
  20092b:	c6 04 c5 24 b0 10 00 	movb   $0x0,0x10b024(,%eax,8)
  200932:	00
  200933:	0f b6 45 fc          	movzbl -0x4(%ebp),%eax
  200937:	0f b6 55 f4          	movzbl -0xc(%ebp),%edx
  20093b:	88 14 c5 25 b0 10 00 	mov    %dl,0x10b025(,%eax,8)
  200942:	90                   	nop
  200943:	c9                   	leave
  200944:	c3                   	ret
  200945:	55                   	push   %ebp
  200946:	89 e5                	mov    %esp,%ebp
  200948:	83 ec 18             	sub    $0x18,%esp
  20094b:	66 c7 05 20 b8 10 00 	movw   $0x7ff,0x10b820
  200952:	ff 07
  200954:	b8 20 b0 10 00       	mov    $0x10b020,%eax
  200959:	a3 22 b8 10 00       	mov    %eax,0x10b822
  20095e:	c7 45 f4 00 00 00 00 	movl   $0x0,-0xc(%ebp)
  200965:	eb 19                	jmp    200980 <task_queue_head+0xf2978>
  200967:	8b 45 f4             	mov    -0xc(%ebp),%eax
  20096a:	0f b6 c0             	movzbl %al,%eax
  20096d:	6a 00                	push   $0x0
  20096f:	6a 00                	push   $0x0
  200971:	6a 00                	push   $0x0
  200973:	50                   	push   %eax
  200974:	e8 62 ff ff ff       	call   2008db <task_queue_head+0xf28d3>
  200979:	83 c4 10             	add    $0x10,%esp
  20097c:	83 45 f4 01          	addl   $0x1,-0xc(%ebp)
  200980:	81 7d f4 ff 00 00 00 	cmpl   $0xff,-0xc(%ebp)
  200987:	7e de                	jle    200967 <task_queue_head+0xf295f>
  200989:	83 ec 0c             	sub    $0xc,%esp
  20098c:	68 20 b8 10 00       	push   $0x10b820
  200991:	e8 1a f7 ff ff       	call   2000b0 <task_queue_head+0xf20a8>
  200996:	83 c4 10             	add    $0x10,%esp
  200999:	90                   	nop
  20099a:	c9                   	leave
  20099b:	c3                   	ret
  20099c:	55                   	push   %ebp
  20099d:	89 e5                	mov    %esp,%ebp
  20099f:	83 ec 08             	sub    $0x8,%esp
  2009a2:	8b 55 08             	mov    0x8(%ebp),%edx
  2009a5:	8b 45 0c             	mov    0xc(%ebp),%eax
  2009a8:	66 89 55 fc          	mov    %dx,-0x4(%ebp)
  2009ac:	88 45 f8             	mov    %al,-0x8(%ebp)
  2009af:	0f b6 45 f8          	movzbl -0x8(%ebp),%eax
  2009b3:	0f b7 55 fc          	movzwl -0x4(%ebp),%edx
  2009b7:	ee                   	out    %al,(%dx)
  2009b8:	90                   	nop
  2009b9:	c9                   	leave
  2009ba:	c3                   	ret
  2009bb:	55                   	push   %ebp
  2009bc:	89 e5                	mov    %esp,%ebp
  2009be:	83 ec 14             	sub    $0x14,%esp
  2009c1:	8b 45 08             	mov    0x8(%ebp),%eax
  2009c4:	66 89 45 ec          	mov    %ax,-0x14(%ebp)
  2009c8:	0f b7 45 ec          	movzwl -0x14(%ebp),%eax
  2009cc:	89 c2                	mov    %eax,%edx
  2009ce:	ec                   	in     (%dx),%al
  2009cf:	88 45 ff             	mov    %al,-0x1(%ebp)
  2009d2:	0f b6 45 ff          	movzbl -0x1(%ebp),%eax
  2009d6:	c9                   	leave
  2009d7:	c3                   	ret
  2009d8:	55                   	push   %ebp
  2009d9:	89 e5                	mov    %esp,%ebp
  2009db:	6a 00                	push   $0x0
  2009dd:	68 80 00 00 00       	push   $0x80
  2009e2:	e8 b5 ff ff ff       	call   20099c <task_queue_head+0xf2994>
  2009e7:	83 c4 08             	add    $0x8,%esp
  2009ea:	90                   	nop
  2009eb:	c9                   	leave
  2009ec:	c3                   	ret
  2009ed:	55                   	push   %ebp
  2009ee:	89 e5                	mov    %esp,%ebp
  2009f0:	6a 11                	push   $0x11
  2009f2:	6a 20                	push   $0x20
  2009f4:	e8 a3 ff ff ff       	call   20099c <task_queue_head+0xf2994>
  2009f9:	83 c4 08             	add    $0x8,%esp
  2009fc:	e8 d7 ff ff ff       	call   2009d8 <task_queue_head+0xf29d0>
  200a01:	6a 11                	push   $0x11
  200a03:	68 a0 00 00 00       	push   $0xa0
  200a08:	e8 8f ff ff ff       	call   20099c <task_queue_head+0xf2994>
  200a0d:	83 c4 08             	add    $0x8,%esp
  200a10:	e8 c3 ff ff ff       	call   2009d8 <task_queue_head+0xf29d0>
  200a15:	8b 45 08             	mov    0x8(%ebp),%eax
  200a18:	0f b6 c0             	movzbl %al,%eax
  200a1b:	50                   	push   %eax
  200a1c:	6a 21                	push   $0x21
  200a1e:	e8 79 ff ff ff       	call   20099c <task_queue_head+0xf2994>
  200a23:	83 c4 08             	add    $0x8,%esp
  200a26:	e8 ad ff ff ff       	call   2009d8 <task_queue_head+0xf29d0>
  200a2b:	8b 45 0c             	mov    0xc(%ebp),%eax
  200a2e:	0f b6 c0             	movzbl %al,%eax
  200a31:	50                   	push   %eax
  200a32:	68 a1 00 00 00       	push   $0xa1
  200a37:	e8 60 ff ff ff       	call   20099c <task_queue_head+0xf2994>
  200a3c:	83 c4 08             	add    $0x8,%esp
  200a3f:	e8 94 ff ff ff       	call   2009d8 <task_queue_head+0xf29d0>
  200a44:	6a 04                	push   $0x4
  200a46:	6a 21                	push   $0x21
  200a48:	e8 4f ff ff ff       	call   20099c <task_queue_head+0xf2994>
  200a4d:	83 c4 08             	add    $0x8,%esp
  200a50:	e8 83 ff ff ff       	call   2009d8 <task_queue_head+0xf29d0>
  200a55:	6a 02                	push   $0x2
  200a57:	68 a1 00 00 00       	push   $0xa1
  200a5c:	e8 3b ff ff ff       	call   20099c <task_queue_head+0xf2994>
  200a61:	83 c4 08             	add    $0x8,%esp
  200a64:	e8 6f ff ff ff       	call   2009d8 <task_queue_head+0xf29d0>
  200a69:	6a 01                	push   $0x1
  200a6b:	6a 21                	push   $0x21
  200a6d:	e8 2a ff ff ff       	call   20099c <task_queue_head+0xf2994>
  200a72:	83 c4 08             	add    $0x8,%esp
  200a75:	e8 5e ff ff ff       	call   2009d8 <task_queue_head+0xf29d0>
  200a7a:	6a 01                	push   $0x1
  200a7c:	68 a1 00 00 00       	push   $0xa1
  200a81:	e8 16 ff ff ff       	call   20099c <task_queue_head+0xf2994>
  200a86:	83 c4 08             	add    $0x8,%esp
  200a89:	e8 4a ff ff ff       	call   2009d8 <task_queue_head+0xf29d0>
  200a8e:	6a 00                	push   $0x0
  200a90:	6a 21                	push   $0x21
  200a92:	e8 05 ff ff ff       	call   20099c <task_queue_head+0xf2994>
  200a97:	83 c4 08             	add    $0x8,%esp
  200a9a:	6a 00                	push   $0x0
  200a9c:	68 a1 00 00 00       	push   $0xa1
  200aa1:	e8 f6 fe ff ff       	call   20099c <task_queue_head+0xf2994>
  200aa6:	83 c4 08             	add    $0x8,%esp
  200aa9:	90                   	nop
  200aaa:	c9                   	leave
  200aab:	c3                   	ret
  200aac:	55                   	push   %ebp
  200aad:	89 e5                	mov    %esp,%ebp
  200aaf:	83 ec 30             	sub    $0x30,%esp
  200ab2:	8b 45 08             	mov    0x8(%ebp),%eax
  200ab5:	8b 40 28             	mov    0x28(%eax),%eax
  200ab8:	89 45 e8             	mov    %eax,-0x18(%ebp)
  200abb:	c7 45 e4 00 80 0b 00 	movl   $0xb8000,-0x1c(%ebp)
  200ac2:	c6 45 e3 20          	movb   $0x20,-0x1d(%ebp)
  200ac6:	c7 45 fc 00 00 00 00 	movl   $0x0,-0x4(%ebp)
  200acd:	eb 14                	jmp    200ae3 <task_queue_head+0xf2adb>
  200acf:	8b 45 fc             	mov    -0x4(%ebp),%eax
  200ad2:	8d 14 00             	lea    (%eax,%eax,1),%edx
  200ad5:	8b 45 e4             	mov    -0x1c(%ebp),%eax
  200ad8:	01 d0                	add    %edx,%eax
  200ada:	66 c7 00 20 0f       	movw   $0xf20,(%eax)
  200adf:	83 45 fc 01          	addl   $0x1,-0x4(%ebp)
  200ae3:	81 7d fc 9f 00 00 00 	cmpl   $0x9f,-0x4(%ebp)
  200aea:	7e e3                	jle    200acf <task_queue_head+0xf2ac7>
  200aec:	c7 05 00 b0 10 00 00 	movl   $0x0,0x10b000
  200af3:	00 00 00
  200af6:	c7 05 04 b0 10 00 00 	movl   $0x0,0x10b004
  200afd:	00 00 00
  200b00:	83 7d e8 0e          	cmpl   $0xe,-0x18(%ebp)
  200b04:	0f 85 71 01 00 00    	jne    200c7b <task_queue_head+0xf2c73>
  200b0a:	c6 45 e3 50          	movb   $0x50,-0x1d(%ebp)
  200b0e:	0f 20 d0             	mov    %cr2,%eax
  200b11:	89 45 dc             	mov    %eax,-0x24(%ebp)
  200b14:	66 0f be 45 e3       	movsbw -0x1d(%ebp),%ax
  200b19:	80 cc 0c             	or     $0xc,%ah
  200b1c:	89 c2                	mov    %eax,%edx
  200b1e:	8b 45 e4             	mov    -0x1c(%ebp),%eax
  200b21:	66 89 10             	mov    %dx,(%eax)
  200b24:	8b 45 e4             	mov    -0x1c(%ebp),%eax
  200b27:	83 c0 02             	add    $0x2,%eax
  200b2a:	66 c7 00 46 0c       	movw   $0xc46,(%eax)
  200b2f:	8b 45 e4             	mov    -0x1c(%ebp),%eax
  200b32:	05 a0 00 00 00       	add    $0xa0,%eax
  200b37:	66 c7 00 43 00       	movw   $0x43,(%eax)
  200b3c:	8b 45 e4             	mov    -0x1c(%ebp),%eax
  200b3f:	05 a2 00 00 00       	add    $0xa2,%eax
  200b44:	66 c7 00 52 00       	movw   $0x52,(%eax)
  200b49:	8b 45 e4             	mov    -0x1c(%ebp),%eax
  200b4c:	05 a4 00 00 00       	add    $0xa4,%eax
  200b51:	66 c7 00 32 00       	movw   $0x32,(%eax)
  200b56:	8b 45 e4             	mov    -0x1c(%ebp),%eax
  200b59:	05 a6 00 00 00       	add    $0xa6,%eax
  200b5e:	66 c7 00 3d 00       	movw   $0x3d,(%eax)
  200b63:	8b 45 e4             	mov    -0x1c(%ebp),%eax
  200b66:	05 a8 00 00 00       	add    $0xa8,%eax
  200b6b:	66 c7 00 30 00       	movw   $0x30,(%eax)
  200b70:	8b 45 e4             	mov    -0x1c(%ebp),%eax
  200b73:	05 aa 00 00 00       	add    $0xaa,%eax
  200b78:	66 c7 00 78 00       	movw   $0x78,(%eax)
  200b7d:	c7 45 f8 00 00 00 00 	movl   $0x0,-0x8(%ebp)
  200b84:	eb 53                	jmp    200bd9 <task_queue_head+0xf2bd1>
  200b86:	b8 07 00 00 00       	mov    $0x7,%eax
  200b8b:	2b 45 f8             	sub    -0x8(%ebp),%eax
  200b8e:	c1 e0 02             	shl    $0x2,%eax
  200b91:	8b 55 dc             	mov    -0x24(%ebp),%edx
  200b94:	89 c1                	mov    %eax,%ecx
  200b96:	d3 ea                	shr    %cl,%edx
  200b98:	89 d0                	mov    %edx,%eax
  200b9a:	83 e0 0f             	and    $0xf,%eax
  200b9d:	88 45 f7             	mov    %al,-0x9(%ebp)
  200ba0:	80 7d f7 09          	cmpb   $0x9,-0x9(%ebp)
  200ba4:	7f 0c                	jg     200bb2 <task_queue_head+0xf2baa>
  200ba6:	0f b6 45 f7          	movzbl -0x9(%ebp),%eax
  200baa:	83 c0 30             	add    $0x30,%eax
  200bad:	88 45 f7             	mov    %al,-0x9(%ebp)
  200bb0:	eb 0a                	jmp    200bbc <task_queue_head+0xf2bb4>
  200bb2:	0f b6 45 f7          	movzbl -0x9(%ebp),%eax
  200bb6:	83 c0 37             	add    $0x37,%eax
  200bb9:	88 45 f7             	mov    %al,-0x9(%ebp)
  200bbc:	66 0f be 55 f7       	movsbw -0x9(%ebp),%dx
  200bc1:	8b 45 f8             	mov    -0x8(%ebp),%eax
  200bc4:	83 c0 56             	add    $0x56,%eax
  200bc7:	8d 0c 00             	lea    (%eax,%eax,1),%ecx
  200bca:	8b 45 e4             	mov    -0x1c(%ebp),%eax
  200bcd:	01 c8                	add    %ecx,%eax
  200bcf:	80 ce 0c             	or     $0xc,%dh
  200bd2:	66 89 10             	mov    %dx,(%eax)
  200bd5:	83 45 f8 01          	addl   $0x1,-0x8(%ebp)
  200bd9:	83 7d f8 07          	cmpl   $0x7,-0x8(%ebp)
  200bdd:	7e a7                	jle    200b86 <task_queue_head+0xf2b7e>
  200bdf:	8b 45 08             	mov    0x8(%ebp),%eax
  200be2:	8b 40 30             	mov    0x30(%eax),%eax
  200be5:	89 45 d8             	mov    %eax,-0x28(%ebp)
  200be8:	8b 45 e4             	mov    -0x1c(%ebp),%eax
  200beb:	83 c0 14             	add    $0x14,%eax
  200bee:	66 c7 00 45 00       	movw   $0x45,(%eax)
  200bf3:	8b 45 e4             	mov    -0x1c(%ebp),%eax
  200bf6:	83 c0 16             	add    $0x16,%eax
  200bf9:	66 c7 00 49 00       	movw   $0x49,(%eax)
  200bfe:	8b 45 e4             	mov    -0x1c(%ebp),%eax
  200c01:	83 c0 18             	add    $0x18,%eax
  200c04:	66 c7 00 50 00       	movw   $0x50,(%eax)
  200c09:	8b 45 e4             	mov    -0x1c(%ebp),%eax
  200c0c:	83 c0 1a             	add    $0x1a,%eax
  200c0f:	66 c7 00 3d 00       	movw   $0x3d,(%eax)
  200c14:	c7 45 f0 00 00 00 00 	movl   $0x0,-0x10(%ebp)
  200c1b:	eb 53                	jmp    200c70 <task_queue_head+0xf2c68>
  200c1d:	b8 07 00 00 00       	mov    $0x7,%eax
  200c22:	2b 45 f0             	sub    -0x10(%ebp),%eax
  200c25:	c1 e0 02             	shl    $0x2,%eax
  200c28:	8b 55 d8             	mov    -0x28(%ebp),%edx
  200c2b:	89 c1                	mov    %eax,%ecx
  200c2d:	d3 ea                	shr    %cl,%edx
  200c2f:	89 d0                	mov    %edx,%eax
  200c31:	83 e0 0f             	and    $0xf,%eax
  200c34:	88 45 ef             	mov    %al,-0x11(%ebp)
  200c37:	80 7d ef 09          	cmpb   $0x9,-0x11(%ebp)
  200c3b:	7f 0c                	jg     200c49 <task_queue_head+0xf2c41>
  200c3d:	0f b6 45 ef          	movzbl -0x11(%ebp),%eax
  200c41:	83 c0 30             	add    $0x30,%eax
  200c44:	88 45 ef             	mov    %al,-0x11(%ebp)
  200c47:	eb 0a                	jmp    200c53 <task_queue_head+0xf2c4b>
  200c49:	0f b6 45 ef          	movzbl -0x11(%ebp),%eax
  200c4d:	83 c0 37             	add    $0x37,%eax
  200c50:	88 45 ef             	mov    %al,-0x11(%ebp)
  200c53:	66 0f be 55 ef       	movsbw -0x11(%ebp),%dx
  200c58:	8b 45 f0             	mov    -0x10(%ebp),%eax
  200c5b:	83 c0 0e             	add    $0xe,%eax
  200c5e:	8d 0c 00             	lea    (%eax,%eax,1),%ecx
  200c61:	8b 45 e4             	mov    -0x1c(%ebp),%eax
  200c64:	01 c8                	add    %ecx,%eax
  200c66:	80 ce 0c             	or     $0xc,%dh
  200c69:	66 89 10             	mov    %dx,(%eax)
  200c6c:	83 45 f0 01          	addl   $0x1,-0x10(%ebp)
  200c70:	83 7d f0 07          	cmpl   $0x7,-0x10(%ebp)
  200c74:	7e a7                	jle    200c1d <task_queue_head+0xf2c15>
  200c76:	e9 86 00 00 00       	jmp    200d01 <task_queue_head+0xf2cf9>
  200c7b:	83 7d e8 08          	cmpl   $0x8,-0x18(%ebp)
  200c7f:	75 21                	jne    200ca2 <task_queue_head+0xf2c9a>
  200c81:	c6 45 e3 44          	movb   $0x44,-0x1d(%ebp)
  200c85:	66 0f be 45 e3       	movsbw -0x1d(%ebp),%ax
  200c8a:	80 cc 0c             	or     $0xc,%ah
  200c8d:	89 c2                	mov    %eax,%edx
  200c8f:	8b 45 e4             	mov    -0x1c(%ebp),%eax
  200c92:	66 89 10             	mov    %dx,(%eax)
  200c95:	8b 45 e4             	mov    -0x1c(%ebp),%eax
  200c98:	83 c0 02             	add    $0x2,%eax
  200c9b:	66 c7 00 46 0c       	movw   $0xc46,(%eax)
  200ca0:	eb 5f                	jmp    200d01 <task_queue_head+0xf2cf9>
  200ca2:	c6 45 e3 45          	movb   $0x45,-0x1d(%ebp)
  200ca6:	66 0f be 45 e3       	movsbw -0x1d(%ebp),%ax
  200cab:	80 cc 0c             	or     $0xc,%ah
  200cae:	89 c2                	mov    %eax,%edx
  200cb0:	8b 45 e4             	mov    -0x1c(%ebp),%eax
  200cb3:	66 89 10             	mov    %dx,(%eax)
  200cb6:	8b 45 e8             	mov    -0x18(%ebp),%eax
  200cb9:	ba cd cc cc cc       	mov    $0xcccccccd,%edx
  200cbe:	f7 e2                	mul    %edx
  200cc0:	89 d0                	mov    %edx,%eax
  200cc2:	c1 e8 03             	shr    $0x3,%eax
  200cc5:	8d 50 30             	lea    0x30(%eax),%edx
  200cc8:	8b 45 e4             	mov    -0x1c(%ebp),%eax
  200ccb:	83 c0 02             	add    $0x2,%eax
  200cce:	80 ce 0c             	or     $0xc,%dh
  200cd1:	66 89 10             	mov    %dx,(%eax)
  200cd4:	8b 4d e8             	mov    -0x18(%ebp),%ecx
  200cd7:	ba cd cc cc cc       	mov    $0xcccccccd,%edx
  200cdc:	89 c8                	mov    %ecx,%eax
  200cde:	f7 e2                	mul    %edx
  200ce0:	c1 ea 03             	shr    $0x3,%edx
  200ce3:	89 d0                	mov    %edx,%eax
  200ce5:	c1 e0 02             	shl    $0x2,%eax
  200ce8:	01 d0                	add    %edx,%eax
  200cea:	01 c0                	add    %eax,%eax
  200cec:	29 c1                	sub    %eax,%ecx
  200cee:	89 ca                	mov    %ecx,%edx
  200cf0:	89 d0                	mov    %edx,%eax
  200cf2:	8d 50 30             	lea    0x30(%eax),%edx
  200cf5:	8b 45 e4             	mov    -0x1c(%ebp),%eax
  200cf8:	83 c0 04             	add    $0x4,%eax
  200cfb:	80 ce 0c             	or     $0xc,%dh
  200cfe:	66 89 10             	mov    %dx,(%eax)
  200d01:	fa                   	cli
  200d02:	f4                   	hlt
  200d03:	90                   	nop
  200d04:	c9                   	leave
  200d05:	c3                   	ret
  200d06:	55                   	push   %ebp
  200d07:	89 e5                	mov    %esp,%ebp
  200d09:	83 ec 18             	sub    $0x18,%esp
  200d0c:	8b 45 08             	mov    0x8(%ebp),%eax
  200d0f:	89 45 f4             	mov    %eax,-0xc(%ebp)
  200d12:	8b 45 f4             	mov    -0xc(%ebp),%eax
  200d15:	8b 40 28             	mov    0x28(%eax),%eax
  200d18:	89 45 f0             	mov    %eax,-0x10(%ebp)
  200d1b:	83 7d f0 20          	cmpl   $0x20,-0x10(%ebp)
  200d1f:	75 05                	jne    200d26 <task_queue_head+0xf2d1e>
  200d21:	e8 90 17 00 00       	call   2024b6 <task_queue_head+0xf44ae>
  200d26:	83 7d f0 27          	cmpl   $0x27,-0x10(%ebp)
  200d2a:	76 12                	jbe    200d3e <task_queue_head+0xf2d36>
  200d2c:	83 ec 08             	sub    $0x8,%esp
  200d2f:	6a 20                	push   $0x20
  200d31:	68 a0 00 00 00       	push   $0xa0
  200d36:	e8 61 fc ff ff       	call   20099c <task_queue_head+0xf2994>
  200d3b:	83 c4 10             	add    $0x10,%esp
  200d3e:	83 ec 08             	sub    $0x8,%esp
  200d41:	6a 20                	push   $0x20
  200d43:	6a 20                	push   $0x20
  200d45:	e8 52 fc ff ff       	call   20099c <task_queue_head+0xf2994>
  200d4a:	83 c4 10             	add    $0x10,%esp
  200d4d:	90                   	nop
  200d4e:	c9                   	leave
  200d4f:	c3                   	ret
  200d50:	55                   	push   %ebp
  200d51:	89 e5                	mov    %esp,%ebp
  200d53:	83 ec 08             	sub    $0x8,%esp
  200d56:	6a 28                	push   $0x28
  200d58:	6a 20                	push   $0x20
  200d5a:	e8 8e fc ff ff       	call   2009ed <task_queue_head+0xf29e5>
  200d5f:	83 c4 08             	add    $0x8,%esp
  200d62:	b8 08 01 10 00       	mov    $0x100108,%eax
  200d67:	68 8e 00 00 00       	push   $0x8e
  200d6c:	6a 08                	push   $0x8
  200d6e:	50                   	push   %eax
  200d6f:	6a 00                	push   $0x0
  200d71:	e8 65 fb ff ff       	call   2008db <task_queue_head+0xf28d3>
  200d76:	83 c4 10             	add    $0x10,%esp
  200d79:	b8 0f 01 10 00       	mov    $0x10010f,%eax
  200d7e:	68 8e 00 00 00       	push   $0x8e
  200d83:	6a 08                	push   $0x8
  200d85:	50                   	push   %eax
  200d86:	6a 01                	push   $0x1
  200d88:	e8 4e fb ff ff       	call   2008db <task_queue_head+0xf28d3>
  200d8d:	83 c4 10             	add    $0x10,%esp
  200d90:	b8 16 01 10 00       	mov    $0x100116,%eax
  200d95:	68 8e 00 00 00       	push   $0x8e
  200d9a:	6a 08                	push   $0x8
  200d9c:	50                   	push   %eax
  200d9d:	6a 02                	push   $0x2
  200d9f:	e8 37 fb ff ff       	call   2008db <task_queue_head+0xf28d3>
  200da4:	83 c4 10             	add    $0x10,%esp
  200da7:	b8 1d 01 10 00       	mov    $0x10011d,%eax
  200dac:	68 8e 00 00 00       	push   $0x8e
  200db1:	6a 08                	push   $0x8
  200db3:	50                   	push   %eax
  200db4:	6a 03                	push   $0x3
  200db6:	e8 20 fb ff ff       	call   2008db <task_queue_head+0xf28d3>
  200dbb:	83 c4 10             	add    $0x10,%esp
  200dbe:	b8 24 01 10 00       	mov    $0x100124,%eax
  200dc3:	68 8e 00 00 00       	push   $0x8e
  200dc8:	6a 08                	push   $0x8
  200dca:	50                   	push   %eax
  200dcb:	6a 04                	push   $0x4
  200dcd:	e8 09 fb ff ff       	call   2008db <task_queue_head+0xf28d3>
  200dd2:	83 c4 10             	add    $0x10,%esp
  200dd5:	b8 2b 01 10 00       	mov    $0x10012b,%eax
  200dda:	68 8e 00 00 00       	push   $0x8e
  200ddf:	6a 08                	push   $0x8
  200de1:	50                   	push   %eax
  200de2:	6a 05                	push   $0x5
  200de4:	e8 f2 fa ff ff       	call   2008db <task_queue_head+0xf28d3>
  200de9:	83 c4 10             	add    $0x10,%esp
  200dec:	b8 32 01 10 00       	mov    $0x100132,%eax
  200df1:	68 8e 00 00 00       	push   $0x8e
  200df6:	6a 08                	push   $0x8
  200df8:	50                   	push   %eax
  200df9:	6a 06                	push   $0x6
  200dfb:	e8 db fa ff ff       	call   2008db <task_queue_head+0xf28d3>
  200e00:	83 c4 10             	add    $0x10,%esp
  200e03:	b8 39 01 10 00       	mov    $0x100139,%eax
  200e08:	68 8e 00 00 00       	push   $0x8e
  200e0d:	6a 08                	push   $0x8
  200e0f:	50                   	push   %eax
  200e10:	6a 07                	push   $0x7
  200e12:	e8 c4 fa ff ff       	call   2008db <task_queue_head+0xf28d3>
  200e17:	83 c4 10             	add    $0x10,%esp
  200e1a:	b8 40 01 10 00       	mov    $0x100140,%eax
  200e1f:	68 8e 00 00 00       	push   $0x8e
  200e24:	6a 08                	push   $0x8
  200e26:	50                   	push   %eax
  200e27:	6a 08                	push   $0x8
  200e29:	e8 ad fa ff ff       	call   2008db <task_queue_head+0xf28d3>
  200e2e:	83 c4 10             	add    $0x10,%esp
  200e31:	b8 48 01 10 00       	mov    $0x100148,%eax
  200e36:	68 8e 00 00 00       	push   $0x8e
  200e3b:	6a 08                	push   $0x8
  200e3d:	50                   	push   %eax
  200e3e:	6a 09                	push   $0x9
  200e40:	e8 96 fa ff ff       	call   2008db <task_queue_head+0xf28d3>
  200e45:	83 c4 10             	add    $0x10,%esp
  200e48:	b8 52 01 10 00       	mov    $0x100152,%eax
  200e4d:	68 8e 00 00 00       	push   $0x8e
  200e52:	6a 08                	push   $0x8
  200e54:	50                   	push   %eax
  200e55:	6a 0a                	push   $0xa
  200e57:	e8 7f fa ff ff       	call   2008db <task_queue_head+0xf28d3>
  200e5c:	83 c4 10             	add    $0x10,%esp
  200e5f:	b8 5a 01 10 00       	mov    $0x10015a,%eax
  200e64:	68 8e 00 00 00       	push   $0x8e
  200e69:	6a 08                	push   $0x8
  200e6b:	50                   	push   %eax
  200e6c:	6a 0b                	push   $0xb
  200e6e:	e8 68 fa ff ff       	call   2008db <task_queue_head+0xf28d3>
  200e73:	83 c4 10             	add    $0x10,%esp
  200e76:	b8 62 01 10 00       	mov    $0x100162,%eax
  200e7b:	68 8e 00 00 00       	push   $0x8e
  200e80:	6a 08                	push   $0x8
  200e82:	50                   	push   %eax
  200e83:	6a 0c                	push   $0xc
  200e85:	e8 51 fa ff ff       	call   2008db <task_queue_head+0xf28d3>
  200e8a:	83 c4 10             	add    $0x10,%esp
  200e8d:	b8 6a 01 10 00       	mov    $0x10016a,%eax
  200e92:	68 8e 00 00 00       	push   $0x8e
  200e97:	6a 08                	push   $0x8
  200e99:	50                   	push   %eax
  200e9a:	6a 0d                	push   $0xd
  200e9c:	e8 3a fa ff ff       	call   2008db <task_queue_head+0xf28d3>
  200ea1:	83 c4 10             	add    $0x10,%esp
  200ea4:	b8 72 01 10 00       	mov    $0x100172,%eax
  200ea9:	68 8e 00 00 00       	push   $0x8e
  200eae:	6a 08                	push   $0x8
  200eb0:	50                   	push   %eax
  200eb1:	6a 0e                	push   $0xe
  200eb3:	e8 23 fa ff ff       	call   2008db <task_queue_head+0xf28d3>
  200eb8:	83 c4 10             	add    $0x10,%esp
  200ebb:	b8 7a 01 10 00       	mov    $0x10017a,%eax
  200ec0:	68 8e 00 00 00       	push   $0x8e
  200ec5:	6a 08                	push   $0x8
  200ec7:	50                   	push   %eax
  200ec8:	6a 0f                	push   $0xf
  200eca:	e8 0c fa ff ff       	call   2008db <task_queue_head+0xf28d3>
  200ecf:	83 c4 10             	add    $0x10,%esp
  200ed2:	b8 84 01 10 00       	mov    $0x100184,%eax
  200ed7:	68 8e 00 00 00       	push   $0x8e
  200edc:	6a 08                	push   $0x8
  200ede:	50                   	push   %eax
  200edf:	6a 10                	push   $0x10
  200ee1:	e8 f5 f9 ff ff       	call   2008db <task_queue_head+0xf28d3>
  200ee6:	83 c4 10             	add    $0x10,%esp
  200ee9:	b8 8e 01 10 00       	mov    $0x10018e,%eax
  200eee:	68 8e 00 00 00       	push   $0x8e
  200ef3:	6a 08                	push   $0x8
  200ef5:	50                   	push   %eax
  200ef6:	6a 11                	push   $0x11
  200ef8:	e8 de f9 ff ff       	call   2008db <task_queue_head+0xf28d3>
  200efd:	83 c4 10             	add    $0x10,%esp
  200f00:	b8 96 01 10 00       	mov    $0x100196,%eax
  200f05:	68 8e 00 00 00       	push   $0x8e
  200f0a:	6a 08                	push   $0x8
  200f0c:	50                   	push   %eax
  200f0d:	6a 12                	push   $0x12
  200f0f:	e8 c7 f9 ff ff       	call   2008db <task_queue_head+0xf28d3>
  200f14:	83 c4 10             	add    $0x10,%esp
  200f17:	b8 a0 01 10 00       	mov    $0x1001a0,%eax
  200f1c:	68 8e 00 00 00       	push   $0x8e
  200f21:	6a 08                	push   $0x8
  200f23:	50                   	push   %eax
  200f24:	6a 13                	push   $0x13
  200f26:	e8 b0 f9 ff ff       	call   2008db <task_queue_head+0xf28d3>
  200f2b:	83 c4 10             	add    $0x10,%esp
  200f2e:	b8 aa 01 10 00       	mov    $0x1001aa,%eax
  200f33:	68 8e 00 00 00       	push   $0x8e
  200f38:	6a 08                	push   $0x8
  200f3a:	50                   	push   %eax
  200f3b:	6a 14                	push   $0x14
  200f3d:	e8 99 f9 ff ff       	call   2008db <task_queue_head+0xf28d3>
  200f42:	83 c4 10             	add    $0x10,%esp
  200f45:	b8 b4 01 10 00       	mov    $0x1001b4,%eax
  200f4a:	68 8e 00 00 00       	push   $0x8e
  200f4f:	6a 08                	push   $0x8
  200f51:	50                   	push   %eax
  200f52:	6a 15                	push   $0x15
  200f54:	e8 82 f9 ff ff       	call   2008db <task_queue_head+0xf28d3>
  200f59:	83 c4 10             	add    $0x10,%esp
  200f5c:	b8 bc 01 10 00       	mov    $0x1001bc,%eax
  200f61:	68 8e 00 00 00       	push   $0x8e
  200f66:	6a 08                	push   $0x8
  200f68:	50                   	push   %eax
  200f69:	6a 16                	push   $0x16
  200f6b:	e8 6b f9 ff ff       	call   2008db <task_queue_head+0xf28d3>
  200f70:	83 c4 10             	add    $0x10,%esp
  200f73:	b8 c6 01 10 00       	mov    $0x1001c6,%eax
  200f78:	68 8e 00 00 00       	push   $0x8e
  200f7d:	6a 08                	push   $0x8
  200f7f:	50                   	push   %eax
  200f80:	6a 17                	push   $0x17
  200f82:	e8 54 f9 ff ff       	call   2008db <task_queue_head+0xf28d3>
  200f87:	83 c4 10             	add    $0x10,%esp
  200f8a:	b8 d0 01 10 00       	mov    $0x1001d0,%eax
  200f8f:	68 8e 00 00 00       	push   $0x8e
  200f94:	6a 08                	push   $0x8
  200f96:	50                   	push   %eax
  200f97:	6a 18                	push   $0x18
  200f99:	e8 3d f9 ff ff       	call   2008db <task_queue_head+0xf28d3>
  200f9e:	83 c4 10             	add    $0x10,%esp
  200fa1:	b8 da 01 10 00       	mov    $0x1001da,%eax
  200fa6:	68 8e 00 00 00       	push   $0x8e
  200fab:	6a 08                	push   $0x8
  200fad:	50                   	push   %eax
  200fae:	6a 19                	push   $0x19
  200fb0:	e8 26 f9 ff ff       	call   2008db <task_queue_head+0xf28d3>
  200fb5:	83 c4 10             	add    $0x10,%esp
  200fb8:	b8 e4 01 10 00       	mov    $0x1001e4,%eax
  200fbd:	68 8e 00 00 00       	push   $0x8e
  200fc2:	6a 08                	push   $0x8
  200fc4:	50                   	push   %eax
  200fc5:	6a 1a                	push   $0x1a
  200fc7:	e8 0f f9 ff ff       	call   2008db <task_queue_head+0xf28d3>
  200fcc:	83 c4 10             	add    $0x10,%esp
  200fcf:	b8 ee 01 10 00       	mov    $0x1001ee,%eax
  200fd4:	68 8e 00 00 00       	push   $0x8e
  200fd9:	6a 08                	push   $0x8
  200fdb:	50                   	push   %eax
  200fdc:	6a 1b                	push   $0x1b
  200fde:	e8 f8 f8 ff ff       	call   2008db <task_queue_head+0xf28d3>
  200fe3:	83 c4 10             	add    $0x10,%esp
  200fe6:	b8 f8 01 10 00       	mov    $0x1001f8,%eax
  200feb:	68 8e 00 00 00       	push   $0x8e
  200ff0:	6a 08                	push   $0x8
  200ff2:	50                   	push   %eax
  200ff3:	6a 1c                	push   $0x1c
  200ff5:	e8 e1 f8 ff ff       	call   2008db <task_queue_head+0xf28d3>
  200ffa:	83 c4 10             	add    $0x10,%esp
  200ffd:	b8 02 02 10 00       	mov    $0x100202,%eax
  201002:	68 8e 00 00 00       	push   $0x8e
  201007:	6a 08                	push   $0x8
  201009:	50                   	push   %eax
  20100a:	6a 1d                	push   $0x1d
  20100c:	e8 ca f8 ff ff       	call   2008db <task_queue_head+0xf28d3>
  201011:	83 c4 10             	add    $0x10,%esp
  201014:	b8 0a 02 10 00       	mov    $0x10020a,%eax
  201019:	68 8e 00 00 00       	push   $0x8e
  20101e:	6a 08                	push   $0x8
  201020:	50                   	push   %eax
  201021:	6a 1e                	push   $0x1e
  201023:	e8 b3 f8 ff ff       	call   2008db <task_queue_head+0xf28d3>
  201028:	83 c4 10             	add    $0x10,%esp
  20102b:	b8 12 02 10 00       	mov    $0x100212,%eax
  201030:	68 8e 00 00 00       	push   $0x8e
  201035:	6a 08                	push   $0x8
  201037:	50                   	push   %eax
  201038:	6a 1f                	push   $0x1f
  20103a:	e8 9c f8 ff ff       	call   2008db <task_queue_head+0xf28d3>
  20103f:	83 c4 10             	add    $0x10,%esp
  201042:	b8 1c 02 10 00       	mov    $0x10021c,%eax
  201047:	68 8e 00 00 00       	push   $0x8e
  20104c:	6a 08                	push   $0x8
  20104e:	50                   	push   %eax
  20104f:	6a 20                	push   $0x20
  201051:	e8 85 f8 ff ff       	call   2008db <task_queue_head+0xf28d3>
  201056:	83 c4 10             	add    $0x10,%esp
  201059:	b8 26 02 10 00       	mov    $0x100226,%eax
  20105e:	68 8e 00 00 00       	push   $0x8e
  201063:	6a 08                	push   $0x8
  201065:	50                   	push   %eax
  201066:	6a 21                	push   $0x21
  201068:	e8 6e f8 ff ff       	call   2008db <task_queue_head+0xf28d3>
  20106d:	83 c4 10             	add    $0x10,%esp
  201070:	b8 4c 02 10 00       	mov    $0x10024c,%eax
  201075:	68 8e 00 00 00       	push   $0x8e
  20107a:	6a 08                	push   $0x8
  20107c:	50                   	push   %eax
  20107d:	6a 22                	push   $0x22
  20107f:	e8 57 f8 ff ff       	call   2008db <task_queue_head+0xf28d3>
  201084:	83 c4 10             	add    $0x10,%esp
  201087:	b8 56 02 10 00       	mov    $0x100256,%eax
  20108c:	68 8e 00 00 00       	push   $0x8e
  201091:	6a 08                	push   $0x8
  201093:	50                   	push   %eax
  201094:	6a 23                	push   $0x23
  201096:	e8 40 f8 ff ff       	call   2008db <task_queue_head+0xf28d3>
  20109b:	83 c4 10             	add    $0x10,%esp
  20109e:	b8 60 02 10 00       	mov    $0x100260,%eax
  2010a3:	68 8e 00 00 00       	push   $0x8e
  2010a8:	6a 08                	push   $0x8
  2010aa:	50                   	push   %eax
  2010ab:	6a 24                	push   $0x24
  2010ad:	e8 29 f8 ff ff       	call   2008db <task_queue_head+0xf28d3>
  2010b2:	83 c4 10             	add    $0x10,%esp
  2010b5:	b8 6a 02 10 00       	mov    $0x10026a,%eax
  2010ba:	68 8e 00 00 00       	push   $0x8e
  2010bf:	6a 08                	push   $0x8
  2010c1:	50                   	push   %eax
  2010c2:	6a 25                	push   $0x25
  2010c4:	e8 12 f8 ff ff       	call   2008db <task_queue_head+0xf28d3>
  2010c9:	83 c4 10             	add    $0x10,%esp
  2010cc:	b8 74 02 10 00       	mov    $0x100274,%eax
  2010d1:	68 8e 00 00 00       	push   $0x8e
  2010d6:	6a 08                	push   $0x8
  2010d8:	50                   	push   %eax
  2010d9:	6a 26                	push   $0x26
  2010db:	e8 fb f7 ff ff       	call   2008db <task_queue_head+0xf28d3>
  2010e0:	83 c4 10             	add    $0x10,%esp
  2010e3:	b8 7e 02 10 00       	mov    $0x10027e,%eax
  2010e8:	68 8e 00 00 00       	push   $0x8e
  2010ed:	6a 08                	push   $0x8
  2010ef:	50                   	push   %eax
  2010f0:	6a 27                	push   $0x27
  2010f2:	e8 e4 f7 ff ff       	call   2008db <task_queue_head+0xf28d3>
  2010f7:	83 c4 10             	add    $0x10,%esp
  2010fa:	b8 88 02 10 00       	mov    $0x100288,%eax
  2010ff:	68 8e 00 00 00       	push   $0x8e
  201104:	6a 08                	push   $0x8
  201106:	50                   	push   %eax
  201107:	6a 28                	push   $0x28
  201109:	e8 cd f7 ff ff       	call   2008db <task_queue_head+0xf28d3>
  20110e:	83 c4 10             	add    $0x10,%esp
  201111:	b8 92 02 10 00       	mov    $0x100292,%eax
  201116:	68 8e 00 00 00       	push   $0x8e
  20111b:	6a 08                	push   $0x8
  20111d:	50                   	push   %eax
  20111e:	6a 29                	push   $0x29
  201120:	e8 b6 f7 ff ff       	call   2008db <task_queue_head+0xf28d3>
  201125:	83 c4 10             	add    $0x10,%esp
  201128:	b8 9c 02 10 00       	mov    $0x10029c,%eax
  20112d:	68 8e 00 00 00       	push   $0x8e
  201132:	6a 08                	push   $0x8
  201134:	50                   	push   %eax
  201135:	6a 2a                	push   $0x2a
  201137:	e8 9f f7 ff ff       	call   2008db <task_queue_head+0xf28d3>
  20113c:	83 c4 10             	add    $0x10,%esp
  20113f:	b8 a6 02 10 00       	mov    $0x1002a6,%eax
  201144:	68 8e 00 00 00       	push   $0x8e
  201149:	6a 08                	push   $0x8
  20114b:	50                   	push   %eax
  20114c:	6a 2b                	push   $0x2b
  20114e:	e8 88 f7 ff ff       	call   2008db <task_queue_head+0xf28d3>
  201153:	83 c4 10             	add    $0x10,%esp
  201156:	b8 b0 02 10 00       	mov    $0x1002b0,%eax
  20115b:	68 8e 00 00 00       	push   $0x8e
  201160:	6a 08                	push   $0x8
  201162:	50                   	push   %eax
  201163:	6a 2c                	push   $0x2c
  201165:	e8 71 f7 ff ff       	call   2008db <task_queue_head+0xf28d3>
  20116a:	83 c4 10             	add    $0x10,%esp
  20116d:	b8 ba 02 10 00       	mov    $0x1002ba,%eax
  201172:	68 8e 00 00 00       	push   $0x8e
  201177:	6a 08                	push   $0x8
  201179:	50                   	push   %eax
  20117a:	6a 2d                	push   $0x2d
  20117c:	e8 5a f7 ff ff       	call   2008db <task_queue_head+0xf28d3>
  201181:	83 c4 10             	add    $0x10,%esp
  201184:	b8 c4 02 10 00       	mov    $0x1002c4,%eax
  201189:	68 8e 00 00 00       	push   $0x8e
  20118e:	6a 08                	push   $0x8
  201190:	50                   	push   %eax
  201191:	6a 2e                	push   $0x2e
  201193:	e8 43 f7 ff ff       	call   2008db <task_queue_head+0xf28d3>
  201198:	83 c4 10             	add    $0x10,%esp
  20119b:	b8 ce 02 10 00       	mov    $0x1002ce,%eax
  2011a0:	68 8e 00 00 00       	push   $0x8e
  2011a5:	6a 08                	push   $0x8
  2011a7:	50                   	push   %eax
  2011a8:	6a 2f                	push   $0x2f
  2011aa:	e8 2c f7 ff ff       	call   2008db <task_queue_head+0xf28d3>
  2011af:	83 c4 10             	add    $0x10,%esp
  2011b2:	fb                   	sti
  2011b3:	90                   	nop
  2011b4:	c9                   	leave
  2011b5:	c3                   	ret
  2011b6:	55                   	push   %ebp
  2011b7:	89 e5                	mov    %esp,%ebp
  2011b9:	a1 4c b9 10 00       	mov    0x10b94c,%eax
  2011be:	85 c0                	test   %eax,%eax
  2011c0:	75 37                	jne    2011f9 <task_queue_head+0xf31f1>
  2011c2:	8b 45 08             	mov    0x8(%ebp),%eax
  2011c5:	a3 44 b9 10 00       	mov    %eax,0x10b944
  2011ca:	8b 45 0c             	mov    0xc(%ebp),%eax
  2011cd:	a3 48 b9 10 00       	mov    %eax,0x10b948
  2011d2:	c7 05 40 b9 10 00 00 	movl   $0x0,0x10b940
  2011d9:	00 00 00
  2011dc:	c6 05 40 b8 10 00 00 	movb   $0x0,0x10b840
  2011e3:	c7 05 50 b9 10 00 00 	movl   $0x0,0x10b950
  2011ea:	00 00 00
  2011ed:	a1 04 e0 10 00       	mov    0x10e004,%eax
  2011f2:	a3 4c b9 10 00       	mov    %eax,0x10b94c
  2011f7:	eb 01                	jmp    2011fa <task_queue_head+0xf31f2>
  2011f9:	90                   	nop
  2011fa:	5d                   	pop    %ebp
  2011fb:	c3                   	ret
  2011fc:	55                   	push   %ebp
  2011fd:	89 e5                	mov    %esp,%ebp
  2011ff:	53                   	push   %ebx
  201200:	83 ec 24             	sub    $0x24,%esp
  201203:	8b 45 08             	mov    0x8(%ebp),%eax
  201206:	88 45 e4             	mov    %al,-0x1c(%ebp)
  201209:	a1 4c b9 10 00       	mov    0x10b94c,%eax
  20120e:	85 c0                	test   %eax,%eax
  201210:	0f 84 76 01 00 00    	je     20138c <task_queue_head+0xf3384>
  201216:	a1 44 b9 10 00       	mov    0x10b944,%eax
  20121b:	85 c0                	test   %eax,%eax
  20121d:	0f 84 69 01 00 00    	je     20138c <task_queue_head+0xf3384>
  201223:	80 7d e4 0a          	cmpb   $0xa,-0x1c(%ebp)
  201227:	0f 85 ad 00 00 00    	jne    2012da <task_queue_head+0xf32d2>
  20122d:	a1 40 b9 10 00       	mov    0x10b940,%eax
  201232:	c6 80 40 b8 10 00 00 	movb   $0x0,0x10b840(%eax)
  201239:	a1 40 b9 10 00       	mov    0x10b940,%eax
  20123e:	89 45 f4             	mov    %eax,-0xc(%ebp)
  201241:	a1 48 b9 10 00       	mov    0x10b948,%eax
  201246:	39 45 f4             	cmp    %eax,-0xc(%ebp)
  201249:	72 0b                	jb     201256 <task_queue_head+0xf324e>
  20124b:	a1 48 b9 10 00       	mov    0x10b948,%eax
  201250:	83 e8 01             	sub    $0x1,%eax
  201253:	89 45 f4             	mov    %eax,-0xc(%ebp)
  201256:	a1 44 b9 10 00       	mov    0x10b944,%eax
  20125b:	83 ec 04             	sub    $0x4,%esp
  20125e:	ff 75 f4             	push   -0xc(%ebp)
  201261:	68 40 b8 10 00       	push   $0x10b840
  201266:	50                   	push   %eax
  201267:	e8 57 09 00 00       	call   201bc3 <task_queue_head+0xf3bbb>
  20126c:	83 c4 10             	add    $0x10,%esp
  20126f:	8b 15 44 b9 10 00    	mov    0x10b944,%edx
  201275:	8b 45 f4             	mov    -0xc(%ebp),%eax
  201278:	01 d0                	add    %edx,%eax
  20127a:	c6 00 00             	movb   $0x0,(%eax)
  20127d:	8b 45 f4             	mov    -0xc(%ebp),%eax
  201280:	a3 50 b9 10 00       	mov    %eax,0x10b950
  201285:	0f b6 05 04 30 10 00 	movzbl 0x103004,%eax
  20128c:	0f be d8             	movsbl %al,%ebx
  20128f:	8b 0d 04 b0 10 00    	mov    0x10b004,%ecx
  201295:	8b 15 00 b0 10 00    	mov    0x10b000,%edx
  20129b:	0f be 45 e4          	movsbl -0x1c(%ebp),%eax
  20129f:	53                   	push   %ebx
  2012a0:	51                   	push   %ecx
  2012a1:	52                   	push   %edx
  2012a2:	50                   	push   %eax
  2012a3:	e8 87 f0 ff ff       	call   20032f <task_queue_head+0xf2327>
  2012a8:	83 c4 10             	add    $0x10,%esp
  2012ab:	a1 4c b9 10 00       	mov    0x10b94c,%eax
  2012b0:	c7 40 2c 01 00 00 00 	movl   $0x1,0x2c(%eax)
  2012b7:	c7 05 4c b9 10 00 00 	movl   $0x0,0x10b94c
  2012be:	00 00 00
  2012c1:	c7 05 44 b9 10 00 00 	movl   $0x0,0x10b944
  2012c8:	00 00 00
  2012cb:	c7 05 40 b9 10 00 00 	movl   $0x0,0x10b940
  2012d2:	00 00 00
  2012d5:	e9 b3 00 00 00       	jmp    20138d <task_queue_head+0xf3385>
  2012da:	80 7d e4 08          	cmpb   $0x8,-0x1c(%ebp)
  2012de:	75 42                	jne    201322 <task_queue_head+0xf331a>
  2012e0:	a1 40 b9 10 00       	mov    0x10b940,%eax
  2012e5:	85 c0                	test   %eax,%eax
  2012e7:	0f 84 a0 00 00 00    	je     20138d <task_queue_head+0xf3385>
  2012ed:	a1 40 b9 10 00       	mov    0x10b940,%eax
  2012f2:	83 e8 01             	sub    $0x1,%eax
  2012f5:	a3 40 b9 10 00       	mov    %eax,0x10b940
  2012fa:	0f b6 05 04 30 10 00 	movzbl 0x103004,%eax
  201301:	0f be d8             	movsbl %al,%ebx
  201304:	8b 0d 04 b0 10 00    	mov    0x10b004,%ecx
  20130a:	8b 15 00 b0 10 00    	mov    0x10b000,%edx
  201310:	0f be 45 e4          	movsbl -0x1c(%ebp),%eax
  201314:	53                   	push   %ebx
  201315:	51                   	push   %ecx
  201316:	52                   	push   %edx
  201317:	50                   	push   %eax
  201318:	e8 12 f0 ff ff       	call   20032f <task_queue_head+0xf2327>
  20131d:	83 c4 10             	add    $0x10,%esp
  201320:	eb 6b                	jmp    20138d <task_queue_head+0xf3385>
  201322:	80 7d e4 1f          	cmpb   $0x1f,-0x1c(%ebp)
  201326:	7e 65                	jle    20138d <task_queue_head+0xf3385>
  201328:	80 7d e4 7f          	cmpb   $0x7f,-0x1c(%ebp)
  20132c:	74 5f                	je     20138d <task_queue_head+0xf3385>
  20132e:	a1 40 b9 10 00       	mov    0x10b940,%eax
  201333:	3d fe 00 00 00       	cmp    $0xfe,%eax
  201338:	77 53                	ja     20138d <task_queue_head+0xf3385>
  20133a:	a1 48 b9 10 00       	mov    0x10b948,%eax
  20133f:	83 e8 01             	sub    $0x1,%eax
  201342:	8b 15 40 b9 10 00    	mov    0x10b940,%edx
  201348:	39 c2                	cmp    %eax,%edx
  20134a:	73 41                	jae    20138d <task_queue_head+0xf3385>
  20134c:	a1 40 b9 10 00       	mov    0x10b940,%eax
  201351:	8d 50 01             	lea    0x1(%eax),%edx
  201354:	89 15 40 b9 10 00    	mov    %edx,0x10b940
  20135a:	0f b6 55 e4          	movzbl -0x1c(%ebp),%edx
  20135e:	88 90 40 b8 10 00    	mov    %dl,0x10b840(%eax)
  201364:	0f b6 05 04 30 10 00 	movzbl 0x103004,%eax
  20136b:	0f be d8             	movsbl %al,%ebx
  20136e:	8b 0d 04 b0 10 00    	mov    0x10b004,%ecx
  201374:	8b 15 00 b0 10 00    	mov    0x10b000,%edx
  20137a:	0f be 45 e4          	movsbl -0x1c(%ebp),%eax
  20137e:	53                   	push   %ebx
  20137f:	51                   	push   %ecx
  201380:	52                   	push   %edx
  201381:	50                   	push   %eax
  201382:	e8 a8 ef ff ff       	call   20032f <task_queue_head+0xf2327>
  201387:	83 c4 10             	add    $0x10,%esp
  20138a:	eb 01                	jmp    20138d <task_queue_head+0xf3385>
  20138c:	90                   	nop
  20138d:	8b 5d fc             	mov    -0x4(%ebp),%ebx
  201390:	c9                   	leave
  201391:	c3                   	ret
  201392:	55                   	push   %ebp
  201393:	89 e5                	mov    %esp,%ebp
  201395:	83 ec 18             	sub    $0x18,%esp
  201398:	83 ec 0c             	sub    $0xc,%esp
  20139b:	6a 60                	push   $0x60
  20139d:	e8 19 f6 ff ff       	call   2009bb <task_queue_head+0xf29b3>
  2013a2:	83 c4 10             	add    $0x10,%esp
  2013a5:	88 45 f7             	mov    %al,-0x9(%ebp)
  2013a8:	0f b6 45 f7          	movzbl -0x9(%ebp),%eax
  2013ac:	84 c0                	test   %al,%al
  2013ae:	78 3c                	js     2013ec <task_queue_head+0xf33e4>
  2013b0:	80 7d f7 59          	cmpb   $0x59,-0x9(%ebp)
  2013b4:	77 36                	ja     2013ec <task_queue_head+0xf33e4>
  2013b6:	0f b6 45 f7          	movzbl -0x9(%ebp),%eax
  2013ba:	0f b6 80 40 2c 10 00 	movzbl 0x102c40(%eax),%eax
  2013c1:	84 c0                	test   %al,%al
  2013c3:	74 27                	je     2013ec <task_queue_head+0xf33e4>
  2013c5:	0f b6 45 f7          	movzbl -0x9(%ebp),%eax
  2013c9:	0f b6 80 40 2c 10 00 	movzbl 0x102c40(%eax),%eax
  2013d0:	88 45 f6             	mov    %al,-0xa(%ebp)
  2013d3:	a1 4c b9 10 00       	mov    0x10b94c,%eax
  2013d8:	85 c0                	test   %eax,%eax
  2013da:	74 10                	je     2013ec <task_queue_head+0xf33e4>
  2013dc:	0f be 45 f6          	movsbl -0xa(%ebp),%eax
  2013e0:	83 ec 0c             	sub    $0xc,%esp
  2013e3:	50                   	push   %eax
  2013e4:	e8 13 fe ff ff       	call   2011fc <task_queue_head+0xf31f4>
  2013e9:	83 c4 10             	add    $0x10,%esp
  2013ec:	90                   	nop
  2013ed:	c9                   	leave
  2013ee:	c3                   	ret
  2013ef:	55                   	push   %ebp
  2013f0:	89 e5                	mov    %esp,%ebp
  2013f2:	a1 50 b9 10 00       	mov    0x10b950,%eax
  2013f7:	5d                   	pop    %ebp
  2013f8:	c3                   	ret
  2013f9:	55                   	push   %ebp
  2013fa:	89 e5                	mov    %esp,%ebp
  2013fc:	53                   	push   %ebx
  2013fd:	a1 54 b9 10 00       	mov    0x10b954,%eax
  201402:	39 45 08             	cmp    %eax,0x8(%ebp)
  201405:	73 39                	jae    201440 <task_queue_head+0xf3438>
  201407:	8b 0d 08 30 10 00    	mov    0x103008,%ecx
  20140d:	8b 45 08             	mov    0x8(%ebp),%eax
  201410:	c1 e8 05             	shr    $0x5,%eax
  201413:	8d 14 85 00 00 00 00 	lea    0x0(,%eax,4),%edx
  20141a:	01 ca                	add    %ecx,%edx
  20141c:	8b 12                	mov    (%edx),%edx
  20141e:	8b 4d 08             	mov    0x8(%ebp),%ecx
  201421:	83 e1 1f             	and    $0x1f,%ecx
  201424:	bb 01 00 00 00       	mov    $0x1,%ebx
  201429:	d3 e3                	shl    %cl,%ebx
  20142b:	89 d9                	mov    %ebx,%ecx
  20142d:	89 cb                	mov    %ecx,%ebx
  20142f:	8b 0d 08 30 10 00    	mov    0x103008,%ecx
  201435:	c1 e0 02             	shl    $0x2,%eax
  201438:	01 c8                	add    %ecx,%eax
  20143a:	09 da                	or     %ebx,%edx
  20143c:	89 10                	mov    %edx,(%eax)
  20143e:	eb 01                	jmp    201441 <task_queue_head+0xf3439>
  201440:	90                   	nop
  201441:	8b 5d fc             	mov    -0x4(%ebp),%ebx
  201444:	c9                   	leave
  201445:	c3                   	ret
  201446:	55                   	push   %ebp
  201447:	89 e5                	mov    %esp,%ebp
  201449:	53                   	push   %ebx
  20144a:	a1 54 b9 10 00       	mov    0x10b954,%eax
  20144f:	39 45 08             	cmp    %eax,0x8(%ebp)
  201452:	73 3b                	jae    20148f <task_queue_head+0xf3487>
  201454:	8b 0d 08 30 10 00    	mov    0x103008,%ecx
  20145a:	8b 45 08             	mov    0x8(%ebp),%eax
  20145d:	c1 e8 05             	shr    $0x5,%eax
  201460:	8d 14 85 00 00 00 00 	lea    0x0(,%eax,4),%edx
  201467:	01 ca                	add    %ecx,%edx
  201469:	8b 12                	mov    (%edx),%edx
  20146b:	8b 4d 08             	mov    0x8(%ebp),%ecx
  20146e:	83 e1 1f             	and    $0x1f,%ecx
  201471:	bb 01 00 00 00       	mov    $0x1,%ebx
  201476:	d3 e3                	shl    %cl,%ebx
  201478:	89 d9                	mov    %ebx,%ecx
  20147a:	f7 d1                	not    %ecx
  20147c:	89 cb                	mov    %ecx,%ebx
  20147e:	8b 0d 08 30 10 00    	mov    0x103008,%ecx
  201484:	c1 e0 02             	shl    $0x2,%eax
  201487:	01 c8                	add    %ecx,%eax
  201489:	21 da                	and    %ebx,%edx
  20148b:	89 10                	mov    %edx,(%eax)
  20148d:	eb 01                	jmp    201490 <task_queue_head+0xf3488>
  20148f:	90                   	nop
  201490:	8b 5d fc             	mov    -0x4(%ebp),%ebx
  201493:	c9                   	leave
  201494:	c3                   	ret
  201495:	55                   	push   %ebp
  201496:	89 e5                	mov    %esp,%ebp
  201498:	53                   	push   %ebx
  201499:	a1 54 b9 10 00       	mov    0x10b954,%eax
  20149e:	39 45 08             	cmp    %eax,0x8(%ebp)
  2014a1:	72 07                	jb     2014aa <task_queue_head+0xf34a2>
  2014a3:	b8 01 00 00 00       	mov    $0x1,%eax
  2014a8:	eb 2d                	jmp    2014d7 <task_queue_head+0xf34cf>
  2014aa:	a1 08 30 10 00       	mov    0x103008,%eax
  2014af:	8b 55 08             	mov    0x8(%ebp),%edx
  2014b2:	c1 ea 05             	shr    $0x5,%edx
  2014b5:	c1 e2 02             	shl    $0x2,%edx
  2014b8:	01 d0                	add    %edx,%eax
  2014ba:	8b 00                	mov    (%eax),%eax
  2014bc:	8b 55 08             	mov    0x8(%ebp),%edx
  2014bf:	83 e2 1f             	and    $0x1f,%edx
  2014c2:	bb 01 00 00 00       	mov    $0x1,%ebx
  2014c7:	89 d1                	mov    %edx,%ecx
  2014c9:	d3 e3                	shl    %cl,%ebx
  2014cb:	89 da                	mov    %ebx,%edx
  2014cd:	21 d0                	and    %edx,%eax
  2014cf:	85 c0                	test   %eax,%eax
  2014d1:	0f 95 c0             	setne  %al
  2014d4:	0f b6 c0             	movzbl %al,%eax
  2014d7:	8b 5d fc             	mov    -0x4(%ebp),%ebx
  2014da:	c9                   	leave
  2014db:	c3                   	ret
  2014dc:	55                   	push   %ebp
  2014dd:	89 e5                	mov    %esp,%ebp
  2014df:	83 ec 10             	sub    $0x10,%esp
  2014e2:	8b 45 08             	mov    0x8(%ebp),%eax
  2014e5:	c1 e8 0c             	shr    $0xc,%eax
  2014e8:	a3 54 b9 10 00       	mov    %eax,0x10b954
  2014ed:	c7 05 58 b9 10 00 00 	movl   $0x0,0x10b958
  2014f4:	00 00 00
  2014f7:	a1 54 b9 10 00       	mov    0x10b954,%eax
  2014fc:	c1 e8 05             	shr    $0x5,%eax
  2014ff:	89 45 fc             	mov    %eax,-0x4(%ebp)
  201502:	a1 54 b9 10 00       	mov    0x10b954,%eax
  201507:	83 e0 1f             	and    $0x1f,%eax
  20150a:	85 c0                	test   %eax,%eax
  20150c:	74 04                	je     201512 <task_queue_head+0xf350a>
  20150e:	83 45 fc 01          	addl   $0x1,-0x4(%ebp)
  201512:	c7 45 f8 00 00 00 00 	movl   $0x0,-0x8(%ebp)
  201519:	eb 17                	jmp    201532 <task_queue_head+0xf352a>
  20151b:	a1 08 30 10 00       	mov    0x103008,%eax
  201520:	8b 55 f8             	mov    -0x8(%ebp),%edx
  201523:	c1 e2 02             	shl    $0x2,%edx
  201526:	01 d0                	add    %edx,%eax
  201528:	c7 00 00 00 00 00    	movl   $0x0,(%eax)
  20152e:	83 45 f8 01          	addl   $0x1,-0x8(%ebp)
  201532:	8b 45 f8             	mov    -0x8(%ebp),%eax
  201535:	3b 45 fc             	cmp    -0x4(%ebp),%eax
  201538:	72 e1                	jb     20151b <task_queue_head+0xf3513>
  20153a:	c7 45 f0 00 04 00 00 	movl   $0x400,-0x10(%ebp)
  201541:	c7 45 f4 00 00 00 00 	movl   $0x0,-0xc(%ebp)
  201548:	eb 2b                	jmp    201575 <task_queue_head+0xf356d>
  20154a:	ff 75 f4             	push   -0xc(%ebp)
  20154d:	e8 43 ff ff ff       	call   201495 <task_queue_head+0xf348d>
  201552:	83 c4 04             	add    $0x4,%esp
  201555:	85 c0                	test   %eax,%eax
  201557:	75 18                	jne    201571 <task_queue_head+0xf3569>
  201559:	ff 75 f4             	push   -0xc(%ebp)
  20155c:	e8 98 fe ff ff       	call   2013f9 <task_queue_head+0xf33f1>
  201561:	83 c4 04             	add    $0x4,%esp
  201564:	a1 58 b9 10 00       	mov    0x10b958,%eax
  201569:	83 c0 01             	add    $0x1,%eax
  20156c:	a3 58 b9 10 00       	mov    %eax,0x10b958
  201571:	83 45 f4 01          	addl   $0x1,-0xc(%ebp)
  201575:	8b 45 f4             	mov    -0xc(%ebp),%eax
  201578:	3b 45 f0             	cmp    -0x10(%ebp),%eax
  20157b:	72 cd                	jb     20154a <task_queue_head+0xf3542>
  20157d:	90                   	nop
  20157e:	90                   	nop
  20157f:	c9                   	leave
  201580:	c3                   	ret
  201581:	55                   	push   %ebp
  201582:	89 e5                	mov    %esp,%ebp
  201584:	83 ec 10             	sub    $0x10,%esp
  201587:	c7 45 fc 00 00 00 00 	movl   $0x0,-0x4(%ebp)
  20158e:	eb 33                	jmp    2015c3 <task_queue_head+0xf35bb>
  201590:	ff 75 fc             	push   -0x4(%ebp)
  201593:	e8 fd fe ff ff       	call   201495 <task_queue_head+0xf348d>
  201598:	83 c4 04             	add    $0x4,%esp
  20159b:	85 c0                	test   %eax,%eax
  20159d:	75 20                	jne    2015bf <task_queue_head+0xf35b7>
  20159f:	ff 75 fc             	push   -0x4(%ebp)
  2015a2:	e8 52 fe ff ff       	call   2013f9 <task_queue_head+0xf33f1>
  2015a7:	83 c4 04             	add    $0x4,%esp
  2015aa:	a1 58 b9 10 00       	mov    0x10b958,%eax
  2015af:	83 c0 01             	add    $0x1,%eax
  2015b2:	a3 58 b9 10 00       	mov    %eax,0x10b958
  2015b7:	8b 45 fc             	mov    -0x4(%ebp),%eax
  2015ba:	c1 e0 0c             	shl    $0xc,%eax
  2015bd:	eb 13                	jmp    2015d2 <task_queue_head+0xf35ca>
  2015bf:	83 45 fc 01          	addl   $0x1,-0x4(%ebp)
  2015c3:	a1 54 b9 10 00       	mov    0x10b954,%eax
  2015c8:	39 45 fc             	cmp    %eax,-0x4(%ebp)
  2015cb:	72 c3                	jb     201590 <task_queue_head+0xf3588>
  2015cd:	b8 00 00 00 00       	mov    $0x0,%eax
  2015d2:	c9                   	leave
  2015d3:	c3                   	ret
  2015d4:	55                   	push   %ebp
  2015d5:	89 e5                	mov    %esp,%ebp
  2015d7:	83 ec 10             	sub    $0x10,%esp
  2015da:	83 7d 08 00          	cmpl   $0x0,0x8(%ebp)
  2015de:	74 3c                	je     20161c <task_queue_head+0xf3614>
  2015e0:	8b 45 08             	mov    0x8(%ebp),%eax
  2015e3:	c1 e8 0c             	shr    $0xc,%eax
  2015e6:	89 45 fc             	mov    %eax,-0x4(%ebp)
  2015e9:	a1 54 b9 10 00       	mov    0x10b954,%eax
  2015ee:	39 45 fc             	cmp    %eax,-0x4(%ebp)
  2015f1:	73 2c                	jae    20161f <task_queue_head+0xf3617>
  2015f3:	ff 75 fc             	push   -0x4(%ebp)
  2015f6:	e8 9a fe ff ff       	call   201495 <task_queue_head+0xf348d>
  2015fb:	83 c4 04             	add    $0x4,%esp
  2015fe:	85 c0                	test   %eax,%eax
  201600:	74 1e                	je     201620 <task_queue_head+0xf3618>
  201602:	ff 75 fc             	push   -0x4(%ebp)
  201605:	e8 3c fe ff ff       	call   201446 <task_queue_head+0xf343e>
  20160a:	83 c4 04             	add    $0x4,%esp
  20160d:	a1 58 b9 10 00       	mov    0x10b958,%eax
  201612:	83 e8 01             	sub    $0x1,%eax
  201615:	a3 58 b9 10 00       	mov    %eax,0x10b958
  20161a:	eb 04                	jmp    201620 <task_queue_head+0xf3618>
  20161c:	90                   	nop
  20161d:	eb 01                	jmp    201620 <task_queue_head+0xf3618>
  20161f:	90                   	nop
  201620:	c9                   	leave
  201621:	c3                   	ret
  201622:	55                   	push   %ebp
  201623:	89 e5                	mov    %esp,%ebp
  201625:	a1 54 b9 10 00       	mov    0x10b954,%eax
  20162a:	5d                   	pop    %ebp
  20162b:	c3                   	ret
  20162c:	55                   	push   %ebp
  20162d:	89 e5                	mov    %esp,%ebp
  20162f:	a1 58 b9 10 00       	mov    0x10b958,%eax
  201634:	5d                   	pop    %ebp
  201635:	c3                   	ret
  201636:	55                   	push   %ebp
  201637:	89 e5                	mov    %esp,%ebp
  201639:	83 ec 18             	sub    $0x18,%esp
  20163c:	c7 45 f4 00 00 00 00 	movl   $0x0,-0xc(%ebp)
  201643:	eb 19                	jmp    20165e <task_queue_head+0xf3656>
  201645:	8b 45 f4             	mov    -0xc(%ebp),%eax
  201648:	c1 e0 0c             	shl    $0xc,%eax
  20164b:	83 c8 03             	or     $0x3,%eax
  20164e:	89 c2                	mov    %eax,%edx
  201650:	8b 45 f4             	mov    -0xc(%ebp),%eax
  201653:	89 14 85 00 d0 10 00 	mov    %edx,0x10d000(,%eax,4)
  20165a:	83 45 f4 01          	addl   $0x1,-0xc(%ebp)
  20165e:	81 7d f4 ff 03 00 00 	cmpl   $0x3ff,-0xc(%ebp)
  201665:	7e de                	jle    201645 <task_queue_head+0xf363d>
  201667:	b8 00 d0 10 00       	mov    $0x10d000,%eax
  20166c:	83 c8 03             	or     $0x3,%eax
  20166f:	a3 00 c0 10 00       	mov    %eax,0x10c000
  201674:	c7 45 f0 01 00 00 00 	movl   $0x1,-0x10(%ebp)
  20167b:	eb 12                	jmp    20168f <task_queue_head+0xf3687>
  20167d:	8b 45 f0             	mov    -0x10(%ebp),%eax
  201680:	c7 04 85 00 c0 10 00 	movl   $0x0,0x10c000(,%eax,4)
  201687:	00 00 00 00
  20168b:	83 45 f0 01          	addl   $0x1,-0x10(%ebp)
  20168f:	81 7d f0 ff 03 00 00 	cmpl   $0x3ff,-0x10(%ebp)
  201696:	7e e5                	jle    20167d <task_queue_head+0xf3675>
  201698:	83 ec 0c             	sub    $0xc,%esp
  20169b:	68 00 c0 10 00       	push   $0x10c000
  2016a0:	e8 3b ec ff ff       	call   2002e0 <task_queue_head+0xf22d8>
  2016a5:	83 c4 10             	add    $0x10,%esp
  2016a8:	e8 3e ec ff ff       	call   2002eb <task_queue_head+0xf22e3>
  2016ad:	90                   	nop
  2016ae:	c9                   	leave
  2016af:	c3                   	ret
  2016b0:	55                   	push   %ebp
  2016b1:	89 e5                	mov    %esp,%ebp
  2016b3:	83 ec 38             	sub    $0x38,%esp
  2016b6:	8b 45 08             	mov    0x8(%ebp),%eax
  2016b9:	89 45 e8             	mov    %eax,-0x18(%ebp)
  2016bc:	8b 45 e8             	mov    -0x18(%ebp),%eax
  2016bf:	c1 e8 16             	shr    $0x16,%eax
  2016c2:	89 45 e4             	mov    %eax,-0x1c(%ebp)
  2016c5:	8b 45 e8             	mov    -0x18(%ebp),%eax
  2016c8:	c1 e8 0c             	shr    $0xc,%eax
  2016cb:	25 ff 03 00 00       	and    $0x3ff,%eax
  2016d0:	89 45 e0             	mov    %eax,-0x20(%ebp)
  2016d3:	8b 45 e4             	mov    -0x1c(%ebp),%eax
  2016d6:	8b 04 85 00 c0 10 00 	mov    0x10c000(,%eax,4),%eax
  2016dd:	89 45 dc             	mov    %eax,-0x24(%ebp)
  2016e0:	8b 45 dc             	mov    -0x24(%ebp),%eax
  2016e3:	83 e0 01             	and    $0x1,%eax
  2016e6:	85 c0                	test   %eax,%eax
  2016e8:	0f 85 b2 00 00 00    	jne    2017a0 <task_queue_head+0xf3798>
  2016ee:	e8 8e fe ff ff       	call   201581 <task_queue_head+0xf3579>
  2016f3:	89 45 d8             	mov    %eax,-0x28(%ebp)
  2016f6:	83 7d d8 00          	cmpl   $0x0,-0x28(%ebp)
  2016fa:	75 5f                	jne    20175b <task_queue_head+0xf3753>
  2016fc:	c7 45 d4 00 80 0b 00 	movl   $0xb8000,-0x2c(%ebp)
  201703:	c7 45 d0 9a 2c 10 00 	movl   $0x102c9a,-0x30(%ebp)
  20170a:	c7 45 f0 00 00 00 00 	movl   $0x0,-0x10(%ebp)
  201711:	eb 35                	jmp    201748 <task_queue_head+0xf3740>
  201713:	8b 45 f0             	mov    -0x10(%ebp),%eax
  201716:	8d 14 00             	lea    (%eax,%eax,1),%edx
  201719:	8b 45 d4             	mov    -0x2c(%ebp),%eax
  20171c:	01 d0                	add    %edx,%eax
  20171e:	0f b7 00             	movzwl (%eax),%eax
  201721:	b0 00                	mov    $0x0,%al
  201723:	89 c1                	mov    %eax,%ecx
  201725:	8b 55 f0             	mov    -0x10(%ebp),%edx
  201728:	8b 45 d0             	mov    -0x30(%ebp),%eax
  20172b:	01 d0                	add    %edx,%eax
  20172d:	0f b6 00             	movzbl (%eax),%eax
  201730:	66 98                	cbtw
  201732:	09 c1                	or     %eax,%ecx
  201734:	8b 45 f0             	mov    -0x10(%ebp),%eax
  201737:	8d 14 00             	lea    (%eax,%eax,1),%edx
  20173a:	8b 45 d4             	mov    -0x2c(%ebp),%eax
  20173d:	01 d0                	add    %edx,%eax
  20173f:	89 ca                	mov    %ecx,%edx
  201741:	66 89 10             	mov    %dx,(%eax)
  201744:	83 45 f0 01          	addl   $0x1,-0x10(%ebp)
  201748:	8b 55 f0             	mov    -0x10(%ebp),%edx
  20174b:	8b 45 d0             	mov    -0x30(%ebp),%eax
  20174e:	01 d0                	add    %edx,%eax
  201750:	0f b6 00             	movzbl (%eax),%eax
  201753:	84 c0                	test   %al,%al
  201755:	75 bc                	jne    201713 <task_queue_head+0xf370b>
  201757:	fa                   	cli
  201758:	f4                   	hlt
  201759:	eb 72                	jmp    2017cd <task_queue_head+0xf37c5>
  20175b:	8b 45 d8             	mov    -0x28(%ebp),%eax
  20175e:	89 45 f4             	mov    %eax,-0xc(%ebp)
  201761:	c7 45 ec 00 00 00 00 	movl   $0x0,-0x14(%ebp)
  201768:	eb 19                	jmp    201783 <task_queue_head+0xf377b>
  20176a:	8b 45 ec             	mov    -0x14(%ebp),%eax
  20176d:	8d 14 85 00 00 00 00 	lea    0x0(,%eax,4),%edx
  201774:	8b 45 f4             	mov    -0xc(%ebp),%eax
  201777:	01 d0                	add    %edx,%eax
  201779:	c7 00 00 00 00 00    	movl   $0x0,(%eax)
  20177f:	83 45 ec 01          	addl   $0x1,-0x14(%ebp)
  201783:	81 7d ec ff 03 00 00 	cmpl   $0x3ff,-0x14(%ebp)
  20178a:	7e de                	jle    20176a <task_queue_head+0xf3762>
  20178c:	8b 45 d8             	mov    -0x28(%ebp),%eax
  20178f:	83 c8 07             	or     $0x7,%eax
  201792:	89 c2                	mov    %eax,%edx
  201794:	8b 45 e4             	mov    -0x1c(%ebp),%eax
  201797:	89 14 85 00 c0 10 00 	mov    %edx,0x10c000(,%eax,4)
  20179e:	eb 0b                	jmp    2017ab <task_queue_head+0xf37a3>
  2017a0:	8b 45 dc             	mov    -0x24(%ebp),%eax
  2017a3:	25 00 f0 ff ff       	and    $0xfffff000,%eax
  2017a8:	89 45 f4             	mov    %eax,-0xc(%ebp)
  2017ab:	8b 45 0c             	mov    0xc(%ebp),%eax
  2017ae:	25 00 f0 ff ff       	and    $0xfffff000,%eax
  2017b3:	8b 55 e0             	mov    -0x20(%ebp),%edx
  2017b6:	8d 0c 95 00 00 00 00 	lea    0x0(,%edx,4),%ecx
  2017bd:	8b 55 f4             	mov    -0xc(%ebp),%edx
  2017c0:	01 ca                	add    %ecx,%edx
  2017c2:	0b 45 10             	or     0x10(%ebp),%eax
  2017c5:	89 02                	mov    %eax,(%edx)
  2017c7:	8b 45 08             	mov    0x8(%ebp),%eax
  2017ca:	0f 01 38             	invlpg (%eax)
  2017cd:	c9                   	leave
  2017ce:	c3                   	ret
  2017cf:	55                   	push   %ebp
  2017d0:	89 e5                	mov    %esp,%ebp
  2017d2:	83 ec 08             	sub    $0x8,%esp
  2017d5:	83 ec 04             	sub    $0x4,%esp
  2017d8:	6a 03                	push   $0x3
  2017da:	ff 75 0c             	push   0xc(%ebp)
  2017dd:	ff 75 08             	push   0x8(%ebp)
  2017e0:	e8 cb fe ff ff       	call   2016b0 <task_queue_head+0xf36a8>
  2017e5:	83 c4 10             	add    $0x10,%esp
  2017e8:	90                   	nop
  2017e9:	c9                   	leave
  2017ea:	c3                   	ret
  2017eb:	55                   	push   %ebp
  2017ec:	89 e5                	mov    %esp,%ebp
  2017ee:	83 ec 08             	sub    $0x8,%esp
  2017f1:	83 ec 04             	sub    $0x4,%esp
  2017f4:	6a 07                	push   $0x7
  2017f6:	ff 75 0c             	push   0xc(%ebp)
  2017f9:	ff 75 08             	push   0x8(%ebp)
  2017fc:	e8 af fe ff ff       	call   2016b0 <task_queue_head+0xf36a8>
  201801:	83 c4 10             	add    $0x10,%esp
  201804:	90                   	nop
  201805:	c9                   	leave
  201806:	c3                   	ret
  201807:	55                   	push   %ebp
  201808:	89 e5                	mov    %esp,%ebp
  20180a:	83 ec 10             	sub    $0x10,%esp
  20180d:	c7 45 fc 00 00 00 00 	movl   $0x0,-0x4(%ebp)
  201814:	8b 45 08             	mov    0x8(%ebp),%eax
  201817:	89 45 f8             	mov    %eax,-0x8(%ebp)
  20181a:	eb 1f                	jmp    20183b <task_queue_head+0xf3833>
  20181c:	8b 45 fc             	mov    -0x4(%ebp),%eax
  20181f:	8d 14 c5 00 00 00 00 	lea    0x0(,%eax,8),%edx
  201826:	8b 45 f8             	mov    -0x8(%ebp),%eax
  201829:	0f b6 00             	movzbl (%eax),%eax
  20182c:	0f be c0             	movsbl %al,%eax
  20182f:	01 d0                	add    %edx,%eax
  201831:	83 e8 30             	sub    $0x30,%eax
  201834:	89 45 fc             	mov    %eax,-0x4(%ebp)
  201837:	83 45 f8 01          	addl   $0x1,-0x8(%ebp)
  20183b:	8b 45 0c             	mov    0xc(%ebp),%eax
  20183e:	8d 50 ff             	lea    -0x1(%eax),%edx
  201841:	89 55 0c             	mov    %edx,0xc(%ebp)
  201844:	85 c0                	test   %eax,%eax
  201846:	74 14                	je     20185c <task_queue_head+0xf3854>
  201848:	8b 45 f8             	mov    -0x8(%ebp),%eax
  20184b:	0f b6 00             	movzbl (%eax),%eax
  20184e:	3c 2f                	cmp    $0x2f,%al
  201850:	7e 0a                	jle    20185c <task_queue_head+0xf3854>
  201852:	8b 45 f8             	mov    -0x8(%ebp),%eax
  201855:	0f b6 00             	movzbl (%eax),%eax
  201858:	3c 37                	cmp    $0x37,%al
  20185a:	7e c0                	jle    20181c <task_queue_head+0xf3814>
  20185c:	8b 45 fc             	mov    -0x4(%ebp),%eax
  20185f:	c9                   	leave
  201860:	c3                   	ret
  201861:	55                   	push   %ebp
  201862:	89 e5                	mov    %esp,%ebp
  201864:	8b 45 08             	mov    0x8(%ebp),%eax
  201867:	a3 00 e0 10 00       	mov    %eax,0x10e000
  20186c:	90                   	nop
  20186d:	5d                   	pop    %ebp
  20186e:	c3                   	ret
  20186f:	55                   	push   %ebp
  201870:	89 e5                	mov    %esp,%ebp
  201872:	83 ec 18             	sub    $0x18,%esp
  201875:	a1 00 e0 10 00       	mov    0x10e000,%eax
  20187a:	85 c0                	test   %eax,%eax
  20187c:	75 20                	jne    20189e <task_queue_head+0xf3896>
  20187e:	0f b6 05 04 30 10 00 	movzbl 0x103004,%eax
  201885:	0f be c0             	movsbl %al,%eax
  201888:	83 ec 08             	sub    $0x8,%esp
  20188b:	50                   	push   %eax
  20188c:	68 b0 2c 10 00       	push   $0x102cb0
  201891:	e8 79 ec ff ff       	call   20050f <task_queue_head+0xf2507>
  201896:	83 c4 10             	add    $0x10,%esp
  201899:	e9 94 01 00 00       	jmp    201a32 <task_queue_head+0xf3a2a>
  20189e:	a1 00 e0 10 00       	mov    0x10e000,%eax
  2018a3:	89 45 f0             	mov    %eax,-0x10(%ebp)
  2018a6:	c7 45 f4 00 00 00 00 	movl   $0x0,-0xc(%ebp)
  2018ad:	8b 15 00 e0 10 00    	mov    0x10e000,%edx
  2018b3:	8b 45 f4             	mov    -0xc(%ebp),%eax
  2018b6:	01 d0                	add    %edx,%eax
  2018b8:	89 45 f0             	mov    %eax,-0x10(%ebp)
  2018bb:	8b 45 f0             	mov    -0x10(%ebp),%eax
  2018be:	0f b6 00             	movzbl (%eax),%eax
  2018c1:	84 c0                	test   %al,%al
  2018c3:	0f 84 68 01 00 00    	je     201a31 <task_queue_head+0xf3a29>
  2018c9:	8b 45 f0             	mov    -0x10(%ebp),%eax
  2018cc:	0f b6 80 01 01 00 00 	movzbl 0x101(%eax),%eax
  2018d3:	3c 75                	cmp    $0x75,%al
  2018d5:	75 46                	jne    20191d <task_queue_head+0xf3915>
  2018d7:	8b 45 f0             	mov    -0x10(%ebp),%eax
  2018da:	0f b6 80 02 01 00 00 	movzbl 0x102(%eax),%eax
  2018e1:	3c 73                	cmp    $0x73,%al
  2018e3:	75 38                	jne    20191d <task_queue_head+0xf3915>
  2018e5:	8b 45 f0             	mov    -0x10(%ebp),%eax
  2018e8:	0f b6 80 03 01 00 00 	movzbl 0x103(%eax),%eax
  2018ef:	3c 74                	cmp    $0x74,%al
  2018f1:	75 2a                	jne    20191d <task_queue_head+0xf3915>
  2018f3:	8b 45 f0             	mov    -0x10(%ebp),%eax
  2018f6:	0f b6 80 04 01 00 00 	movzbl 0x104(%eax),%eax
  2018fd:	3c 61                	cmp    $0x61,%al
  2018ff:	75 1c                	jne    20191d <task_queue_head+0xf3915>
  201901:	8b 45 f0             	mov    -0x10(%ebp),%eax
  201904:	0f b6 80 05 01 00 00 	movzbl 0x105(%eax),%eax
  20190b:	3c 72                	cmp    $0x72,%al
  20190d:	75 0e                	jne    20191d <task_queue_head+0xf3915>
  20190f:	8b 45 f0             	mov    -0x10(%ebp),%eax
  201912:	0f b6 80 06 01 00 00 	movzbl 0x106(%eax),%eax
  201919:	84 c0                	test   %al,%al
  20191b:	74 20                	je     20193d <task_queue_head+0xf3935>
  20191d:	0f b6 05 04 30 10 00 	movzbl 0x103004,%eax
  201924:	0f be c0             	movsbl %al,%eax
  201927:	83 ec 08             	sub    $0x8,%esp
  20192a:	50                   	push   %eax
  20192b:	68 cc 2c 10 00       	push   $0x102ccc
  201930:	e8 da eb ff ff       	call   20050f <task_queue_head+0xf2507>
  201935:	83 c4 10             	add    $0x10,%esp
  201938:	e9 f5 00 00 00       	jmp    201a32 <task_queue_head+0xf3a2a>
  20193d:	0f b6 05 04 30 10 00 	movzbl 0x103004,%eax
  201944:	0f be c0             	movsbl %al,%eax
  201947:	83 ec 08             	sub    $0x8,%esp
  20194a:	50                   	push   %eax
  20194b:	68 03 2d 10 00       	push   $0x102d03
  201950:	e8 ba eb ff ff       	call   20050f <task_queue_head+0xf2507>
  201955:	83 c4 10             	add    $0x10,%esp
  201958:	0f b6 05 04 30 10 00 	movzbl 0x103004,%eax
  20195f:	0f be d0             	movsbl %al,%edx
  201962:	8b 45 f0             	mov    -0x10(%ebp),%eax
  201965:	83 ec 08             	sub    $0x8,%esp
  201968:	52                   	push   %edx
  201969:	50                   	push   %eax
  20196a:	e8 a0 eb ff ff       	call   20050f <task_queue_head+0xf2507>
  20196f:	83 c4 10             	add    $0x10,%esp
  201972:	8b 45 f0             	mov    -0x10(%ebp),%eax
  201975:	83 c0 7c             	add    $0x7c,%eax
  201978:	83 ec 08             	sub    $0x8,%esp
  20197b:	6a 0b                	push   $0xb
  20197d:	50                   	push   %eax
  20197e:	e8 84 fe ff ff       	call   201807 <task_queue_head+0xf37ff>
  201983:	83 c4 10             	add    $0x10,%esp
  201986:	89 45 ec             	mov    %eax,-0x14(%ebp)
  201989:	0f b6 05 04 30 10 00 	movzbl 0x103004,%eax
  201990:	0f be c0             	movsbl %al,%eax
  201993:	83 ec 08             	sub    $0x8,%esp
  201996:	50                   	push   %eax
  201997:	68 0d 2d 10 00       	push   $0x102d0d
  20199c:	e8 6e eb ff ff       	call   20050f <task_queue_head+0xf2507>
  2019a1:	83 c4 10             	add    $0x10,%esp
  2019a4:	8b 45 f0             	mov    -0x10(%ebp),%eax
  2019a7:	0f b6 80 9c 00 00 00 	movzbl 0x9c(%eax),%eax
  2019ae:	88 45 ea             	mov    %al,-0x16(%ebp)
  2019b1:	c6 45 eb 00          	movb   $0x0,-0x15(%ebp)
  2019b5:	0f b6 05 04 30 10 00 	movzbl 0x103004,%eax
  2019bc:	0f be c0             	movsbl %al,%eax
  2019bf:	83 ec 08             	sub    $0x8,%esp
  2019c2:	50                   	push   %eax
  2019c3:	8d 45 ea             	lea    -0x16(%ebp),%eax
  2019c6:	50                   	push   %eax
  2019c7:	e8 43 eb ff ff       	call   20050f <task_queue_head+0xf2507>
  2019cc:	83 c4 10             	add    $0x10,%esp
  2019cf:	0f b6 05 04 30 10 00 	movzbl 0x103004,%eax
  2019d6:	0f be c0             	movsbl %al,%eax
  2019d9:	83 ec 08             	sub    $0x8,%esp
  2019dc:	50                   	push   %eax
  2019dd:	68 16 2d 10 00       	push   $0x102d16
  2019e2:	e8 28 eb ff ff       	call   20050f <task_queue_head+0xf2507>
  2019e7:	83 c4 10             	add    $0x10,%esp
  2019ea:	81 45 f4 00 02 00 00 	addl   $0x200,-0xc(%ebp)
  2019f1:	83 7d ec 00          	cmpl   $0x0,-0x14(%ebp)
  2019f5:	74 10                	je     201a07 <task_queue_head+0xf39ff>
  2019f7:	8b 45 ec             	mov    -0x14(%ebp),%eax
  2019fa:	05 ff 01 00 00       	add    $0x1ff,%eax
  2019ff:	25 00 fe ff ff       	and    $0xfffffe00,%eax
  201a04:	01 45 f4             	add    %eax,-0xc(%ebp)
  201a07:	81 7d f4 00 00 a0 00 	cmpl   $0xa00000,-0xc(%ebp)
  201a0e:	0f 86 99 fe ff ff    	jbe    2018ad <task_queue_head+0xf38a5>
  201a14:	0f b6 05 04 30 10 00 	movzbl 0x103004,%eax
  201a1b:	0f be c0             	movsbl %al,%eax
  201a1e:	83 ec 08             	sub    $0x8,%esp
  201a21:	50                   	push   %eax
  201a22:	68 1c 2d 10 00       	push   $0x102d1c
  201a27:	e8 e3 ea ff ff       	call   20050f <task_queue_head+0xf2507>
  201a2c:	83 c4 10             	add    $0x10,%esp
  201a2f:	eb 01                	jmp    201a32 <task_queue_head+0xf3a2a>
  201a31:	90                   	nop
  201a32:	c9                   	leave
  201a33:	c3                   	ret
  201a34:	55                   	push   %ebp
  201a35:	89 e5                	mov    %esp,%ebp
  201a37:	83 ec 18             	sub    $0x18,%esp
  201a3a:	a1 00 e0 10 00       	mov    0x10e000,%eax
  201a3f:	85 c0                	test   %eax,%eax
  201a41:	74 06                	je     201a49 <task_queue_head+0xf3a41>
  201a43:	83 7d 08 00          	cmpl   $0x0,0x8(%ebp)
  201a47:	75 19                	jne    201a62 <task_queue_head+0xf3a5a>
  201a49:	83 7d 0c 00          	cmpl   $0x0,0xc(%ebp)
  201a4d:	74 09                	je     201a58 <task_queue_head+0xf3a50>
  201a4f:	8b 45 0c             	mov    0xc(%ebp),%eax
  201a52:	c7 00 00 00 00 00    	movl   $0x0,(%eax)
  201a58:	b8 00 00 00 00       	mov    $0x0,%eax
  201a5d:	e9 20 01 00 00       	jmp    201b82 <task_queue_head+0xf3b7a>
  201a62:	a1 00 e0 10 00       	mov    0x10e000,%eax
  201a67:	89 45 f0             	mov    %eax,-0x10(%ebp)
  201a6a:	c7 45 f4 00 00 00 00 	movl   $0x0,-0xc(%ebp)
  201a71:	8b 15 00 e0 10 00    	mov    0x10e000,%edx
  201a77:	8b 45 f4             	mov    -0xc(%ebp),%eax
  201a7a:	01 d0                	add    %edx,%eax
  201a7c:	89 45 f0             	mov    %eax,-0x10(%ebp)
  201a7f:	8b 45 f0             	mov    -0x10(%ebp),%eax
  201a82:	0f b6 00             	movzbl (%eax),%eax
  201a85:	84 c0                	test   %al,%al
  201a87:	0f 84 dd 00 00 00    	je     201b6a <task_queue_head+0xf3b62>
  201a8d:	8b 45 f0             	mov    -0x10(%ebp),%eax
  201a90:	0f b6 80 01 01 00 00 	movzbl 0x101(%eax),%eax
  201a97:	3c 75                	cmp    $0x75,%al
  201a99:	0f 85 cf 00 00 00    	jne    201b6e <task_queue_head+0xf3b66>
  201a9f:	8b 45 f0             	mov    -0x10(%ebp),%eax
  201aa2:	0f b6 80 06 01 00 00 	movzbl 0x106(%eax),%eax
  201aa9:	84 c0                	test   %al,%al
  201aab:	0f 85 bd 00 00 00    	jne    201b6e <task_queue_head+0xf3b66>
  201ab1:	8b 45 f0             	mov    -0x10(%ebp),%eax
  201ab4:	83 ec 08             	sub    $0x8,%esp
  201ab7:	ff 75 08             	push   0x8(%ebp)
  201aba:	50                   	push   %eax
  201abb:	e8 c4 00 00 00       	call   201b84 <task_queue_head+0xf3b7c>
  201ac0:	83 c4 10             	add    $0x10,%esp
  201ac3:	85 c0                	test   %eax,%eax
  201ac5:	75 61                	jne    201b28 <task_queue_head+0xf3b20>
  201ac7:	8b 45 f0             	mov    -0x10(%ebp),%eax
  201aca:	0f b6 80 9c 00 00 00 	movzbl 0x9c(%eax),%eax
  201ad1:	3c 30                	cmp    $0x30,%al
  201ad3:	74 0e                	je     201ae3 <task_queue_head+0xf3adb>
  201ad5:	8b 45 f0             	mov    -0x10(%ebp),%eax
  201ad8:	0f b6 80 9c 00 00 00 	movzbl 0x9c(%eax),%eax
  201adf:	84 c0                	test   %al,%al
  201ae1:	75 2f                	jne    201b12 <task_queue_head+0xf3b0a>
  201ae3:	8b 45 f0             	mov    -0x10(%ebp),%eax
  201ae6:	83 c0 7c             	add    $0x7c,%eax
  201ae9:	83 ec 08             	sub    $0x8,%esp
  201aec:	6a 0b                	push   $0xb
  201aee:	50                   	push   %eax
  201aef:	e8 13 fd ff ff       	call   201807 <task_queue_head+0xf37ff>
  201af4:	83 c4 10             	add    $0x10,%esp
  201af7:	89 45 e8             	mov    %eax,-0x18(%ebp)
  201afa:	83 7d 0c 00          	cmpl   $0x0,0xc(%ebp)
  201afe:	74 08                	je     201b08 <task_queue_head+0xf3b00>
  201b00:	8b 45 0c             	mov    0xc(%ebp),%eax
  201b03:	8b 55 e8             	mov    -0x18(%ebp),%edx
  201b06:	89 10                	mov    %edx,(%eax)
  201b08:	8b 45 f0             	mov    -0x10(%ebp),%eax
  201b0b:	05 00 02 00 00       	add    $0x200,%eax
  201b10:	eb 70                	jmp    201b82 <task_queue_head+0xf3b7a>
  201b12:	83 7d 0c 00          	cmpl   $0x0,0xc(%ebp)
  201b16:	74 09                	je     201b21 <task_queue_head+0xf3b19>
  201b18:	8b 45 0c             	mov    0xc(%ebp),%eax
  201b1b:	c7 00 00 00 00 00    	movl   $0x0,(%eax)
  201b21:	b8 00 00 00 00       	mov    $0x0,%eax
  201b26:	eb 5a                	jmp    201b82 <task_queue_head+0xf3b7a>
  201b28:	8b 45 f0             	mov    -0x10(%ebp),%eax
  201b2b:	83 c0 7c             	add    $0x7c,%eax
  201b2e:	83 ec 08             	sub    $0x8,%esp
  201b31:	6a 0b                	push   $0xb
  201b33:	50                   	push   %eax
  201b34:	e8 ce fc ff ff       	call   201807 <task_queue_head+0xf37ff>
  201b39:	83 c4 10             	add    $0x10,%esp
  201b3c:	89 45 ec             	mov    %eax,-0x14(%ebp)
  201b3f:	81 45 f4 00 02 00 00 	addl   $0x200,-0xc(%ebp)
  201b46:	83 7d ec 00          	cmpl   $0x0,-0x14(%ebp)
  201b4a:	74 10                	je     201b5c <task_queue_head+0xf3b54>
  201b4c:	8b 45 ec             	mov    -0x14(%ebp),%eax
  201b4f:	05 ff 01 00 00       	add    $0x1ff,%eax
  201b54:	25 00 fe ff ff       	and    $0xfffffe00,%eax
  201b59:	01 45 f4             	add    %eax,-0xc(%ebp)
  201b5c:	81 7d f4 00 00 a0 00 	cmpl   $0xa00000,-0xc(%ebp)
  201b63:	77 08                	ja     201b6d <task_queue_head+0xf3b65>
  201b65:	e9 07 ff ff ff       	jmp    201a71 <task_queue_head+0xf3a69>
  201b6a:	90                   	nop
  201b6b:	eb 01                	jmp    201b6e <task_queue_head+0xf3b66>
  201b6d:	90                   	nop
  201b6e:	83 7d 0c 00          	cmpl   $0x0,0xc(%ebp)
  201b72:	74 09                	je     201b7d <task_queue_head+0xf3b75>
  201b74:	8b 45 0c             	mov    0xc(%ebp),%eax
  201b77:	c7 00 00 00 00 00    	movl   $0x0,(%eax)
  201b7d:	b8 00 00 00 00       	mov    $0x0,%eax
  201b82:	c9                   	leave
  201b83:	c3                   	ret
  201b84:	55                   	push   %ebp
  201b85:	89 e5                	mov    %esp,%ebp
  201b87:	eb 08                	jmp    201b91 <task_queue_head+0xf3b89>
  201b89:	83 45 08 01          	addl   $0x1,0x8(%ebp)
  201b8d:	83 45 0c 01          	addl   $0x1,0xc(%ebp)
  201b91:	8b 45 08             	mov    0x8(%ebp),%eax
  201b94:	0f b6 00             	movzbl (%eax),%eax
  201b97:	84 c0                	test   %al,%al
  201b99:	74 10                	je     201bab <task_queue_head+0xf3ba3>
  201b9b:	8b 45 08             	mov    0x8(%ebp),%eax
  201b9e:	0f b6 10             	movzbl (%eax),%edx
  201ba1:	8b 45 0c             	mov    0xc(%ebp),%eax
  201ba4:	0f b6 00             	movzbl (%eax),%eax
  201ba7:	38 c2                	cmp    %al,%dl
  201ba9:	74 de                	je     201b89 <task_queue_head+0xf3b81>
  201bab:	8b 45 08             	mov    0x8(%ebp),%eax
  201bae:	0f b6 00             	movzbl (%eax),%eax
  201bb1:	0f b6 d0             	movzbl %al,%edx
  201bb4:	8b 45 0c             	mov    0xc(%ebp),%eax
  201bb7:	0f b6 00             	movzbl (%eax),%eax
  201bba:	0f b6 c0             	movzbl %al,%eax
  201bbd:	29 c2                	sub    %eax,%edx
  201bbf:	89 d0                	mov    %edx,%eax
  201bc1:	5d                   	pop    %ebp
  201bc2:	c3                   	ret
  201bc3:	55                   	push   %ebp
  201bc4:	89 e5                	mov    %esp,%ebp
  201bc6:	83 ec 10             	sub    $0x10,%esp
  201bc9:	8b 45 08             	mov    0x8(%ebp),%eax
  201bcc:	89 45 fc             	mov    %eax,-0x4(%ebp)
  201bcf:	8b 45 0c             	mov    0xc(%ebp),%eax
  201bd2:	89 45 f8             	mov    %eax,-0x8(%ebp)
  201bd5:	eb 17                	jmp    201bee <task_queue_head+0xf3be6>
  201bd7:	8b 55 f8             	mov    -0x8(%ebp),%edx
  201bda:	8d 42 01             	lea    0x1(%edx),%eax
  201bdd:	89 45 f8             	mov    %eax,-0x8(%ebp)
  201be0:	8b 45 fc             	mov    -0x4(%ebp),%eax
  201be3:	8d 48 01             	lea    0x1(%eax),%ecx
  201be6:	89 4d fc             	mov    %ecx,-0x4(%ebp)
  201be9:	0f b6 12             	movzbl (%edx),%edx
  201bec:	88 10                	mov    %dl,(%eax)
  201bee:	8b 45 10             	mov    0x10(%ebp),%eax
  201bf1:	8d 50 ff             	lea    -0x1(%eax),%edx
  201bf4:	89 55 10             	mov    %edx,0x10(%ebp)
  201bf7:	85 c0                	test   %eax,%eax
  201bf9:	75 dc                	jne    201bd7 <task_queue_head+0xf3bcf>
  201bfb:	8b 45 08             	mov    0x8(%ebp),%eax
  201bfe:	c9                   	leave
  201bff:	c3                   	ret
  201c00:	55                   	push   %ebp
  201c01:	89 e5                	mov    %esp,%ebp
  201c03:	53                   	push   %ebx
  201c04:	83 ec 24             	sub    $0x24,%esp
  201c07:	8b 55 08             	mov    0x8(%ebp),%edx
  201c0a:	8b 45 0c             	mov    0xc(%ebp),%eax
  201c0d:	88 55 e4             	mov    %dl,-0x1c(%ebp)
  201c10:	88 45 e0             	mov    %al,-0x20(%ebp)
  201c13:	0f b6 45 e4          	movzbl -0x1c(%ebp),%eax
  201c17:	c0 e8 04             	shr    $0x4,%al
  201c1a:	88 45 f7             	mov    %al,-0x9(%ebp)
  201c1d:	0f be 5d e0          	movsbl -0x20(%ebp),%ebx
  201c21:	8b 0d 04 b0 10 00    	mov    0x10b004,%ecx
  201c27:	8b 15 00 b0 10 00    	mov    0x10b000,%edx
  201c2d:	80 7d f7 09          	cmpb   $0x9,-0x9(%ebp)
  201c31:	77 0c                	ja     201c3f <task_queue_head+0xf3c37>
  201c33:	0f b6 45 f7          	movzbl -0x9(%ebp),%eax
  201c37:	83 c0 30             	add    $0x30,%eax
  201c3a:	0f be c0             	movsbl %al,%eax
  201c3d:	eb 0a                	jmp    201c49 <task_queue_head+0xf3c41>
  201c3f:	0f b6 45 f7          	movzbl -0x9(%ebp),%eax
  201c43:	83 c0 37             	add    $0x37,%eax
  201c46:	0f be c0             	movsbl %al,%eax
  201c49:	53                   	push   %ebx
  201c4a:	51                   	push   %ecx
  201c4b:	52                   	push   %edx
  201c4c:	50                   	push   %eax
  201c4d:	e8 dd e6 ff ff       	call   20032f <task_queue_head+0xf2327>
  201c52:	83 c4 10             	add    $0x10,%esp
  201c55:	0f b6 45 e4          	movzbl -0x1c(%ebp),%eax
  201c59:	83 e0 0f             	and    $0xf,%eax
  201c5c:	88 45 f7             	mov    %al,-0x9(%ebp)
  201c5f:	0f be 5d e0          	movsbl -0x20(%ebp),%ebx
  201c63:	8b 0d 04 b0 10 00    	mov    0x10b004,%ecx
  201c69:	8b 15 00 b0 10 00    	mov    0x10b000,%edx
  201c6f:	80 7d f7 09          	cmpb   $0x9,-0x9(%ebp)
  201c73:	77 0c                	ja     201c81 <task_queue_head+0xf3c79>
  201c75:	0f b6 45 f7          	movzbl -0x9(%ebp),%eax
  201c79:	83 c0 30             	add    $0x30,%eax
  201c7c:	0f be c0             	movsbl %al,%eax
  201c7f:	eb 0a                	jmp    201c8b <task_queue_head+0xf3c83>
  201c81:	0f b6 45 f7          	movzbl -0x9(%ebp),%eax
  201c85:	83 c0 37             	add    $0x37,%eax
  201c88:	0f be c0             	movsbl %al,%eax
  201c8b:	53                   	push   %ebx
  201c8c:	51                   	push   %ecx
  201c8d:	52                   	push   %edx
  201c8e:	50                   	push   %eax
  201c8f:	e8 9b e6 ff ff       	call   20032f <task_queue_head+0xf2327>
  201c94:	83 c4 10             	add    $0x10,%esp
  201c97:	90                   	nop
  201c98:	8b 5d fc             	mov    -0x4(%ebp),%ebx
  201c9b:	c9                   	leave
  201c9c:	c3                   	ret
  201c9d:	55                   	push   %ebp
  201c9e:	89 e5                	mov    %esp,%ebp
  201ca0:	83 ec 18             	sub    $0x18,%esp
  201ca3:	8b 45 0c             	mov    0xc(%ebp),%eax
  201ca6:	88 45 f4             	mov    %al,-0xc(%ebp)
  201ca9:	0f be 45 f4          	movsbl -0xc(%ebp),%eax
  201cad:	83 ec 08             	sub    $0x8,%esp
  201cb0:	50                   	push   %eax
  201cb1:	68 58 2d 10 00       	push   $0x102d58
  201cb6:	e8 54 e8 ff ff       	call   20050f <task_queue_head+0xf2507>
  201cbb:	83 c4 10             	add    $0x10,%esp
  201cbe:	0f be 55 f4          	movsbl -0xc(%ebp),%edx
  201cc2:	8b 45 08             	mov    0x8(%ebp),%eax
  201cc5:	c1 e8 18             	shr    $0x18,%eax
  201cc8:	0f b6 c0             	movzbl %al,%eax
  201ccb:	83 ec 08             	sub    $0x8,%esp
  201cce:	52                   	push   %edx
  201ccf:	50                   	push   %eax
  201cd0:	e8 2b ff ff ff       	call   201c00 <task_queue_head+0xf3bf8>
  201cd5:	83 c4 10             	add    $0x10,%esp
  201cd8:	0f be 55 f4          	movsbl -0xc(%ebp),%edx
  201cdc:	8b 45 08             	mov    0x8(%ebp),%eax
  201cdf:	c1 e8 10             	shr    $0x10,%eax
  201ce2:	0f b6 c0             	movzbl %al,%eax
  201ce5:	83 ec 08             	sub    $0x8,%esp
  201ce8:	52                   	push   %edx
  201ce9:	50                   	push   %eax
  201cea:	e8 11 ff ff ff       	call   201c00 <task_queue_head+0xf3bf8>
  201cef:	83 c4 10             	add    $0x10,%esp
  201cf2:	0f be 55 f4          	movsbl -0xc(%ebp),%edx
  201cf6:	8b 45 08             	mov    0x8(%ebp),%eax
  201cf9:	c1 e8 08             	shr    $0x8,%eax
  201cfc:	0f b6 c0             	movzbl %al,%eax
  201cff:	83 ec 08             	sub    $0x8,%esp
  201d02:	52                   	push   %edx
  201d03:	50                   	push   %eax
  201d04:	e8 f7 fe ff ff       	call   201c00 <task_queue_head+0xf3bf8>
  201d09:	83 c4 10             	add    $0x10,%esp
  201d0c:	0f be 55 f4          	movsbl -0xc(%ebp),%edx
  201d10:	8b 45 08             	mov    0x8(%ebp),%eax
  201d13:	0f b6 c0             	movzbl %al,%eax
  201d16:	83 ec 08             	sub    $0x8,%esp
  201d19:	52                   	push   %edx
  201d1a:	50                   	push   %eax
  201d1b:	e8 e0 fe ff ff       	call   201c00 <task_queue_head+0xf3bf8>
  201d20:	83 c4 10             	add    $0x10,%esp
  201d23:	90                   	nop
  201d24:	c9                   	leave
  201d25:	c3                   	ret
  201d26:	55                   	push   %ebp
  201d27:	89 e5                	mov    %esp,%ebp
  201d29:	83 ec 20             	sub    $0x20,%esp
  201d2c:	83 7d 10 01          	cmpl   $0x1,0x10(%ebp)
  201d30:	7e 06                	jle    201d38 <task_queue_head+0xf3d30>
  201d32:	83 7d 10 24          	cmpl   $0x24,0x10(%ebp)
  201d36:	7e 0e                	jle    201d46 <task_queue_head+0xf3d3e>
  201d38:	8b 45 0c             	mov    0xc(%ebp),%eax
  201d3b:	c6 00 00             	movb   $0x0,(%eax)
  201d3e:	8b 45 0c             	mov    0xc(%ebp),%eax
  201d41:	e9 bd 00 00 00       	jmp    201e03 <task_queue_head+0xf3dfb>
  201d46:	8b 45 0c             	mov    0xc(%ebp),%eax
  201d49:	89 45 fc             	mov    %eax,-0x4(%ebp)
  201d4c:	8b 45 fc             	mov    -0x4(%ebp),%eax
  201d4f:	89 45 f4             	mov    %eax,-0xc(%ebp)
  201d52:	83 7d 08 00          	cmpl   $0x0,0x8(%ebp)
  201d56:	75 1a                	jne    201d72 <task_queue_head+0xf3d6a>
  201d58:	8b 45 fc             	mov    -0x4(%ebp),%eax
  201d5b:	8d 50 01             	lea    0x1(%eax),%edx
  201d5e:	89 55 fc             	mov    %edx,-0x4(%ebp)
  201d61:	c6 00 30             	movb   $0x30,(%eax)
  201d64:	8b 45 fc             	mov    -0x4(%ebp),%eax
  201d67:	c6 00 00             	movb   $0x0,(%eax)
  201d6a:	8b 45 f4             	mov    -0xc(%ebp),%eax
  201d6d:	e9 91 00 00 00       	jmp    201e03 <task_queue_head+0xf3dfb>
  201d72:	8b 45 fc             	mov    -0x4(%ebp),%eax
  201d75:	89 45 f8             	mov    %eax,-0x8(%ebp)
  201d78:	eb 43                	jmp    201dbd <task_queue_head+0xf3db5>
  201d7a:	8b 4d 10             	mov    0x10(%ebp),%ecx
  201d7d:	8b 45 08             	mov    0x8(%ebp),%eax
  201d80:	ba 00 00 00 00       	mov    $0x0,%edx
  201d85:	f7 f1                	div    %ecx
  201d87:	89 55 ec             	mov    %edx,-0x14(%ebp)
  201d8a:	83 7d ec 09          	cmpl   $0x9,-0x14(%ebp)
  201d8e:	77 0a                	ja     201d9a <task_queue_head+0xf3d92>
  201d90:	8b 45 ec             	mov    -0x14(%ebp),%eax
  201d93:	83 c0 30             	add    $0x30,%eax
  201d96:	89 c1                	mov    %eax,%ecx
  201d98:	eb 08                	jmp    201da2 <task_queue_head+0xf3d9a>
  201d9a:	8b 45 ec             	mov    -0x14(%ebp),%eax
  201d9d:	83 c0 57             	add    $0x57,%eax
  201da0:	89 c1                	mov    %eax,%ecx
  201da2:	8b 45 fc             	mov    -0x4(%ebp),%eax
  201da5:	8d 50 01             	lea    0x1(%eax),%edx
  201da8:	89 55 fc             	mov    %edx,-0x4(%ebp)
  201dab:	88 08                	mov    %cl,(%eax)
  201dad:	8b 4d 10             	mov    0x10(%ebp),%ecx
  201db0:	8b 45 08             	mov    0x8(%ebp),%eax
  201db3:	ba 00 00 00 00       	mov    $0x0,%edx
  201db8:	f7 f1                	div    %ecx
  201dba:	89 45 08             	mov    %eax,0x8(%ebp)
  201dbd:	83 7d 08 00          	cmpl   $0x0,0x8(%ebp)
  201dc1:	75 b7                	jne    201d7a <task_queue_head+0xf3d72>
  201dc3:	8b 45 fc             	mov    -0x4(%ebp),%eax
  201dc6:	c6 00 00             	movb   $0x0,(%eax)
  201dc9:	83 6d fc 01          	subl   $0x1,-0x4(%ebp)
  201dcd:	eb 29                	jmp    201df8 <task_queue_head+0xf3df0>
  201dcf:	8b 45 f8             	mov    -0x8(%ebp),%eax
  201dd2:	0f b6 00             	movzbl (%eax),%eax
  201dd5:	88 45 f3             	mov    %al,-0xd(%ebp)
  201dd8:	8b 45 f8             	mov    -0x8(%ebp),%eax
  201ddb:	8d 50 01             	lea    0x1(%eax),%edx
  201dde:	89 55 f8             	mov    %edx,-0x8(%ebp)
  201de1:	8b 55 fc             	mov    -0x4(%ebp),%edx
  201de4:	0f b6 12             	movzbl (%edx),%edx
  201de7:	88 10                	mov    %dl,(%eax)
  201de9:	8b 45 fc             	mov    -0x4(%ebp),%eax
  201dec:	8d 50 ff             	lea    -0x1(%eax),%edx
  201def:	89 55 fc             	mov    %edx,-0x4(%ebp)
  201df2:	0f b6 55 f3          	movzbl -0xd(%ebp),%edx
  201df6:	88 10                	mov    %dl,(%eax)
  201df8:	8b 45 f8             	mov    -0x8(%ebp),%eax
  201dfb:	3b 45 fc             	cmp    -0x4(%ebp),%eax
  201dfe:	72 cf                	jb     201dcf <task_queue_head+0xf3dc7>
  201e00:	8b 45 f4             	mov    -0xc(%ebp),%eax
  201e03:	c9                   	leave
  201e04:	c3                   	ret
  201e05:	55                   	push   %ebp
  201e06:	89 e5                	mov    %esp,%ebp
  201e08:	83 ec 10             	sub    $0x10,%esp
  201e0b:	8b 45 08             	mov    0x8(%ebp),%eax
  201e0e:	89 45 fc             	mov    %eax,-0x4(%ebp)
  201e11:	eb 0e                	jmp    201e21 <task_queue_head+0xf3e19>
  201e13:	8b 45 fc             	mov    -0x4(%ebp),%eax
  201e16:	8d 50 01             	lea    0x1(%eax),%edx
  201e19:	89 55 fc             	mov    %edx,-0x4(%ebp)
  201e1c:	8b 55 0c             	mov    0xc(%ebp),%edx
  201e1f:	88 10                	mov    %dl,(%eax)
  201e21:	8b 45 10             	mov    0x10(%ebp),%eax
  201e24:	8d 50 ff             	lea    -0x1(%eax),%edx
  201e27:	89 55 10             	mov    %edx,0x10(%ebp)
  201e2a:	85 c0                	test   %eax,%eax
  201e2c:	75 e5                	jne    201e13 <task_queue_head+0xf3e0b>
  201e2e:	8b 45 08             	mov    0x8(%ebp),%eax
  201e31:	c9                   	leave
  201e32:	c3                   	ret
  201e33:	55                   	push   %ebp
  201e34:	89 e5                	mov    %esp,%ebp
  201e36:	83 ec 08             	sub    $0x8,%esp
  201e39:	fa                   	cli
  201e3a:	e8 42 f7 ff ff       	call   201581 <task_queue_head+0xf3579>
  201e3f:	a3 04 e0 10 00       	mov    %eax,0x10e004
  201e44:	a1 04 e0 10 00       	mov    0x10e004,%eax
  201e49:	85 c0                	test   %eax,%eax
  201e4b:	0f 84 85 00 00 00    	je     201ed6 <task_queue_head+0xf3ece>
  201e51:	a1 0c 30 10 00       	mov    0x10300c,%eax
  201e56:	8d 50 01             	lea    0x1(%eax),%edx
  201e59:	89 15 0c 30 10 00    	mov    %edx,0x10300c
  201e5f:	8b 15 04 e0 10 00    	mov    0x10e004,%edx
  201e65:	89 02                	mov    %eax,(%edx)
  201e67:	a1 04 e0 10 00       	mov    0x10e004,%eax
  201e6c:	c7 40 2c 00 00 00 00 	movl   $0x0,0x2c(%eax)
  201e73:	a1 04 e0 10 00       	mov    0x10e004,%eax
  201e78:	c7 40 20 00 00 00 00 	movl   $0x0,0x20(%eax)
  201e7f:	a1 04 e0 10 00       	mov    0x10e004,%eax
  201e84:	c7 40 24 00 00 00 00 	movl   $0x0,0x24(%eax)
  201e8b:	a1 04 e0 10 00       	mov    0x10e004,%eax
  201e90:	c7 40 1c 00 00 00 00 	movl   $0x0,0x1c(%eax)
  201e97:	a1 04 e0 10 00       	mov    0x10e004,%eax
  201e9c:	c7 40 28 02 00 00 00 	movl   $0x2,0x28(%eax)
  201ea3:	a1 04 e0 10 00       	mov    0x10e004,%eax
  201ea8:	8b 15 04 e0 10 00    	mov    0x10e004,%edx
  201eae:	89 50 30             	mov    %edx,0x30(%eax)
  201eb1:	a1 04 e0 10 00       	mov    0x10e004,%eax
  201eb6:	c7 40 34 00 00 00 00 	movl   $0x0,0x34(%eax)
  201ebd:	a1 04 e0 10 00       	mov    0x10e004,%eax
  201ec2:	c7 40 38 00 00 00 00 	movl   $0x0,0x38(%eax)
  201ec9:	a1 04 e0 10 00       	mov    0x10e004,%eax
  201ece:	a3 08 e0 10 00       	mov    %eax,0x10e008
  201ed3:	fb                   	sti
  201ed4:	eb 01                	jmp    201ed7 <task_queue_head+0xf3ecf>
  201ed6:	90                   	nop
  201ed7:	c9                   	leave
  201ed8:	c3                   	ret
  201ed9:	55                   	push   %ebp
  201eda:	89 e5                	mov    %esp,%ebp
  201edc:	83 ec 18             	sub    $0x18,%esp
  201edf:	fa                   	cli
  201ee0:	e8 9c f6 ff ff       	call   201581 <task_queue_head+0xf3579>
  201ee5:	89 45 f4             	mov    %eax,-0xc(%ebp)
  201ee8:	83 7d f4 00          	cmpl   $0x0,-0xc(%ebp)
  201eec:	75 0b                	jne    201ef9 <task_queue_head+0xf3ef1>
  201eee:	fb                   	sti
  201eef:	b8 00 00 00 00       	mov    $0x0,%eax
  201ef4:	e9 12 01 00 00       	jmp    20200b <task_queue_head+0xf4003>
  201ef9:	83 ec 04             	sub    $0x4,%esp
  201efc:	6a 48                	push   $0x48
  201efe:	6a 00                	push   $0x0
  201f00:	ff 75 f4             	push   -0xc(%ebp)
  201f03:	e8 fd fe ff ff       	call   201e05 <task_queue_head+0xf3dfd>
  201f08:	83 c4 10             	add    $0x10,%esp
  201f0b:	e8 71 f6 ff ff       	call   201581 <task_queue_head+0xf3579>
  201f10:	89 45 f0             	mov    %eax,-0x10(%ebp)
  201f13:	83 7d f0 00          	cmpl   $0x0,-0x10(%ebp)
  201f17:	75 19                	jne    201f32 <task_queue_head+0xf3f2a>
  201f19:	83 ec 0c             	sub    $0xc,%esp
  201f1c:	ff 75 f4             	push   -0xc(%ebp)
  201f1f:	e8 b0 f6 ff ff       	call   2015d4 <task_queue_head+0xf35cc>
  201f24:	83 c4 10             	add    $0x10,%esp
  201f27:	fb                   	sti
  201f28:	b8 00 00 00 00       	mov    $0x0,%eax
  201f2d:	e9 d9 00 00 00       	jmp    20200b <task_queue_head+0xf4003>
  201f32:	a1 0c 30 10 00       	mov    0x10300c,%eax
  201f37:	8d 50 01             	lea    0x1(%eax),%edx
  201f3a:	89 15 0c 30 10 00    	mov    %edx,0x10300c
  201f40:	89 c2                	mov    %eax,%edx
  201f42:	8b 45 f4             	mov    -0xc(%ebp),%eax
  201f45:	89 10                	mov    %edx,(%eax)
  201f47:	8b 45 f4             	mov    -0xc(%ebp),%eax
  201f4a:	c7 40 2c 01 00 00 00 	movl   $0x1,0x2c(%eax)
  201f51:	8b 45 f4             	mov    -0xc(%ebp),%eax
  201f54:	c7 40 34 00 00 00 00 	movl   $0x0,0x34(%eax)
  201f5b:	8b 45 f4             	mov    -0xc(%ebp),%eax
  201f5e:	c7 40 38 00 00 00 00 	movl   $0x0,0x38(%eax)
  201f65:	8b 45 f4             	mov    -0xc(%ebp),%eax
  201f68:	c7 40 28 02 02 00 00 	movl   $0x202,0x28(%eax)
  201f6f:	8b 55 08             	mov    0x8(%ebp),%edx
  201f72:	8b 45 f4             	mov    -0xc(%ebp),%eax
  201f75:	89 50 20             	mov    %edx,0x20(%eax)
  201f78:	8b 45 f0             	mov    -0x10(%ebp),%eax
  201f7b:	05 00 10 00 00       	add    $0x1000,%eax
  201f80:	89 45 ec             	mov    %eax,-0x14(%ebp)
  201f83:	8b 45 f4             	mov    -0xc(%ebp),%eax
  201f86:	8b 55 ec             	mov    -0x14(%ebp),%edx
  201f89:	89 50 24             	mov    %edx,0x24(%eax)
  201f8c:	8b 45 f4             	mov    -0xc(%ebp),%eax
  201f8f:	c7 40 1c 00 00 00 00 	movl   $0x0,0x1c(%eax)
  201f96:	8b 45 f4             	mov    -0xc(%ebp),%eax
  201f99:	c7 40 04 00 00 00 00 	movl   $0x0,0x4(%eax)
  201fa0:	8b 45 f4             	mov    -0xc(%ebp),%eax
  201fa3:	c7 40 08 00 00 00 00 	movl   $0x0,0x8(%eax)
  201faa:	8b 45 f4             	mov    -0xc(%ebp),%eax
  201fad:	c7 40 0c 00 00 00 00 	movl   $0x0,0xc(%eax)
  201fb4:	8b 45 f4             	mov    -0xc(%ebp),%eax
  201fb7:	c7 40 10 00 00 00 00 	movl   $0x0,0x10(%eax)
  201fbe:	8b 45 f4             	mov    -0xc(%ebp),%eax
  201fc1:	c7 40 14 00 00 00 00 	movl   $0x0,0x14(%eax)
  201fc8:	8b 45 f4             	mov    -0xc(%ebp),%eax
  201fcb:	c7 40 18 00 00 00 00 	movl   $0x0,0x18(%eax)
  201fd2:	a1 08 e0 10 00       	mov    0x10e008,%eax
  201fd7:	85 c0                	test   %eax,%eax
  201fd9:	75 13                	jne    201fee <task_queue_head+0xf3fe6>
  201fdb:	8b 45 f4             	mov    -0xc(%ebp),%eax
  201fde:	a3 08 e0 10 00       	mov    %eax,0x10e008
  201fe3:	8b 45 f4             	mov    -0xc(%ebp),%eax
  201fe6:	8b 55 f4             	mov    -0xc(%ebp),%edx
  201fe9:	89 50 30             	mov    %edx,0x30(%eax)
  201fec:	eb 19                	jmp    202007 <task_queue_head+0xf3fff>
  201fee:	a1 08 e0 10 00       	mov    0x10e008,%eax
  201ff3:	8b 50 30             	mov    0x30(%eax),%edx
  201ff6:	8b 45 f4             	mov    -0xc(%ebp),%eax
  201ff9:	89 50 30             	mov    %edx,0x30(%eax)
  201ffc:	a1 08 e0 10 00       	mov    0x10e008,%eax
  202001:	8b 55 f4             	mov    -0xc(%ebp),%edx
  202004:	89 50 30             	mov    %edx,0x30(%eax)
  202007:	fb                   	sti
  202008:	8b 45 f4             	mov    -0xc(%ebp),%eax
  20200b:	c9                   	leave
  20200c:	c3                   	ret
  20200d:	55                   	push   %ebp
  20200e:	89 e5                	mov    %esp,%ebp
  202010:	53                   	push   %ebx
  202011:	83 ec 54             	sub    $0x54,%esp
  202014:	89 e0                	mov    %esp,%eax
  202016:	89 c3                	mov    %eax,%ebx
  202018:	fa                   	cli
  202019:	c7 45 a8 00 00 00 00 	movl   $0x0,-0x58(%ebp)
  202020:	83 ec 08             	sub    $0x8,%esp
  202023:	8d 45 a8             	lea    -0x58(%ebp),%eax
  202026:	50                   	push   %eax
  202027:	ff 75 08             	push   0x8(%ebp)
  20202a:	e8 05 fa ff ff       	call   201a34 <task_queue_head+0xf3a2c>
  20202f:	83 c4 10             	add    $0x10,%esp
  202032:	89 45 d8             	mov    %eax,-0x28(%ebp)
  202035:	83 7d d8 00          	cmpl   $0x0,-0x28(%ebp)
  202039:	74 07                	je     202042 <task_queue_head+0xf403a>
  20203b:	8b 45 a8             	mov    -0x58(%ebp),%eax
  20203e:	85 c0                	test   %eax,%eax
  202040:	75 0b                	jne    20204d <task_queue_head+0xf4045>
  202042:	fb                   	sti
  202043:	b8 ff ff ff ff       	mov    $0xffffffff,%eax
  202048:	e9 39 03 00 00       	jmp    202386 <task_queue_head+0xf437e>
  20204d:	e8 2f f5 ff ff       	call   201581 <task_queue_head+0xf3579>
  202052:	89 45 d4             	mov    %eax,-0x2c(%ebp)
  202055:	83 7d d4 00          	cmpl   $0x0,-0x2c(%ebp)
  202059:	75 0b                	jne    202066 <task_queue_head+0xf405e>
  20205b:	fb                   	sti
  20205c:	b8 ff ff ff ff       	mov    $0xffffffff,%eax
  202061:	e9 20 03 00 00       	jmp    202386 <task_queue_head+0xf437e>
  202066:	83 ec 04             	sub    $0x4,%esp
  202069:	6a 48                	push   $0x48
  20206b:	6a 00                	push   $0x0
  20206d:	ff 75 d4             	push   -0x2c(%ebp)
  202070:	e8 90 fd ff ff       	call   201e05 <task_queue_head+0xf3dfd>
  202075:	83 c4 10             	add    $0x10,%esp
  202078:	83 ec 0c             	sub    $0xc,%esp
  20207b:	ff 75 d8             	push   -0x28(%ebp)
  20207e:	e8 63 07 00 00       	call   2027e6 <task_queue_head+0xf47de>
  202083:	83 c4 10             	add    $0x10,%esp
  202086:	89 45 d0             	mov    %eax,-0x30(%ebp)
  202089:	83 7d d0 00          	cmpl   $0x0,-0x30(%ebp)
  20208d:	75 19                	jne    2020a8 <task_queue_head+0xf40a0>
  20208f:	83 ec 0c             	sub    $0xc,%esp
  202092:	ff 75 d4             	push   -0x2c(%ebp)
  202095:	e8 3a f5 ff ff       	call   2015d4 <task_queue_head+0xf35cc>
  20209a:	83 c4 10             	add    $0x10,%esp
  20209d:	fb                   	sti
  20209e:	b8 ff ff ff ff       	mov    $0xffffffff,%eax
  2020a3:	e9 de 02 00 00       	jmp    202386 <task_queue_head+0xf437e>
  2020a8:	c7 45 f4 00 00 00 00 	movl   $0x0,-0xc(%ebp)
  2020af:	eb 4a                	jmp    2020fb <task_queue_head+0xf40f3>
  2020b1:	e8 cb f4 ff ff       	call   201581 <task_queue_head+0xf3579>
  2020b6:	89 45 b0             	mov    %eax,-0x50(%ebp)
  2020b9:	83 7d b0 00          	cmpl   $0x0,-0x50(%ebp)
  2020bd:	75 19                	jne    2020d8 <task_queue_head+0xf40d0>
  2020bf:	83 ec 0c             	sub    $0xc,%esp
  2020c2:	ff 75 d4             	push   -0x2c(%ebp)
  2020c5:	e8 0a f5 ff ff       	call   2015d4 <task_queue_head+0xf35cc>
  2020ca:	83 c4 10             	add    $0x10,%esp
  2020cd:	fb                   	sti
  2020ce:	b8 ff ff ff ff       	mov    $0xffffffff,%eax
  2020d3:	e9 ae 02 00 00       	jmp    202386 <task_queue_head+0xf437e>
  2020d8:	8b 45 f4             	mov    -0xc(%ebp),%eax
  2020db:	c1 e0 0c             	shl    $0xc,%eax
  2020de:	2d 00 40 00 40       	sub    $0x40004000,%eax
  2020e3:	89 45 ac             	mov    %eax,-0x54(%ebp)
  2020e6:	83 ec 08             	sub    $0x8,%esp
  2020e9:	ff 75 b0             	push   -0x50(%ebp)
  2020ec:	ff 75 ac             	push   -0x54(%ebp)
  2020ef:	e8 f7 f6 ff ff       	call   2017eb <task_queue_head+0xf37e3>
  2020f4:	83 c4 10             	add    $0x10,%esp
  2020f7:	83 45 f4 01          	addl   $0x1,-0xc(%ebp)
  2020fb:	83 7d f4 03          	cmpl   $0x3,-0xc(%ebp)
  2020ff:	7e b0                	jle    2020b1 <task_queue_head+0xf40a9>
  202101:	c7 45 cc 00 00 00 c0 	movl   $0xc0000000,-0x34(%ebp)
  202108:	c7 45 f0 00 00 00 00 	movl   $0x0,-0x10(%ebp)
  20210f:	c7 45 ec 00 00 00 00 	movl   $0x0,-0x14(%ebp)
  202116:	83 7d 0c 00          	cmpl   $0x0,0xc(%ebp)
  20211a:	74 60                	je     20217c <task_queue_head+0xf4174>
  20211c:	c7 45 f0 00 00 00 00 	movl   $0x0,-0x10(%ebp)
  202123:	eb 42                	jmp    202167 <task_queue_head+0xf415f>
  202125:	8b 45 f0             	mov    -0x10(%ebp),%eax
  202128:	8d 14 85 00 00 00 00 	lea    0x0(,%eax,4),%edx
  20212f:	8b 45 0c             	mov    0xc(%ebp),%eax
  202132:	01 d0                	add    %edx,%eax
  202134:	8b 00                	mov    (%eax),%eax
  202136:	89 45 c8             	mov    %eax,-0x38(%ebp)
  202139:	c7 45 e8 00 00 00 00 	movl   $0x0,-0x18(%ebp)
  202140:	eb 04                	jmp    202146 <task_queue_head+0xf413e>
  202142:	83 45 e8 01          	addl   $0x1,-0x18(%ebp)
  202146:	8b 55 c8             	mov    -0x38(%ebp),%edx
  202149:	8b 45 e8             	mov    -0x18(%ebp),%eax
  20214c:	01 d0                	add    %edx,%eax
  20214e:	0f b6 00             	movzbl (%eax),%eax
  202151:	84 c0                	test   %al,%al
  202153:	75 ed                	jne    202142 <task_queue_head+0xf413a>
  202155:	8b 55 e8             	mov    -0x18(%ebp),%edx
  202158:	8b 45 ec             	mov    -0x14(%ebp),%eax
  20215b:	01 d0                	add    %edx,%eax
  20215d:	83 c0 01             	add    $0x1,%eax
  202160:	89 45 ec             	mov    %eax,-0x14(%ebp)
  202163:	83 45 f0 01          	addl   $0x1,-0x10(%ebp)
  202167:	8b 45 f0             	mov    -0x10(%ebp),%eax
  20216a:	8d 14 85 00 00 00 00 	lea    0x0(,%eax,4),%edx
  202171:	8b 45 0c             	mov    0xc(%ebp),%eax
  202174:	01 d0                	add    %edx,%eax
  202176:	8b 00                	mov    (%eax),%eax
  202178:	85 c0                	test   %eax,%eax
  20217a:	75 a9                	jne    202125 <task_queue_head+0xf411d>
  20217c:	8b 45 cc             	mov    -0x34(%ebp),%eax
  20217f:	89 45 c4             	mov    %eax,-0x3c(%ebp)
  202182:	8b 45 ec             	mov    -0x14(%ebp),%eax
  202185:	29 45 c4             	sub    %eax,-0x3c(%ebp)
  202188:	8b 45 c4             	mov    -0x3c(%ebp),%eax
  20218b:	89 45 c0             	mov    %eax,-0x40(%ebp)
  20218e:	8b 45 f0             	mov    -0x10(%ebp),%eax
  202191:	83 c0 01             	add    $0x1,%eax
  202194:	8d 50 ff             	lea    -0x1(%eax),%edx
  202197:	89 55 bc             	mov    %edx,-0x44(%ebp)
  20219a:	8d 14 85 00 00 00 00 	lea    0x0(,%eax,4),%edx
  2021a1:	b8 10 00 00 00       	mov    $0x10,%eax
  2021a6:	83 e8 01             	sub    $0x1,%eax
  2021a9:	01 d0                	add    %edx,%eax
  2021ab:	b9 10 00 00 00       	mov    $0x10,%ecx
  2021b0:	ba 00 00 00 00       	mov    $0x0,%edx
  2021b5:	f7 f1                	div    %ecx
  2021b7:	6b c0 10             	imul   $0x10,%eax,%eax
  2021ba:	89 c1                	mov    %eax,%ecx
  2021bc:	81 e1 00 f0 ff ff    	and    $0xfffff000,%ecx
  2021c2:	89 e2                	mov    %esp,%edx
  2021c4:	29 ca                	sub    %ecx,%edx
  2021c6:	39 d4                	cmp    %edx,%esp
  2021c8:	74 10                	je     2021da <task_queue_head+0xf41d2>
  2021ca:	81 ec 00 10 00 00    	sub    $0x1000,%esp
  2021d0:	83 8c 24 fc 0f 00 00 	orl    $0x0,0xffc(%esp)
  2021d7:	00
  2021d8:	eb ec                	jmp    2021c6 <task_queue_head+0xf41be>
  2021da:	89 c2                	mov    %eax,%edx
  2021dc:	81 e2 ff 0f 00 00    	and    $0xfff,%edx
  2021e2:	29 d4                	sub    %edx,%esp
  2021e4:	89 c2                	mov    %eax,%edx
  2021e6:	81 e2 ff 0f 00 00    	and    $0xfff,%edx
  2021ec:	85 d2                	test   %edx,%edx
  2021ee:	74 0d                	je     2021fd <task_queue_head+0xf41f5>
  2021f0:	25 ff 0f 00 00       	and    $0xfff,%eax
  2021f5:	83 e8 04             	sub    $0x4,%eax
  2021f8:	01 e0                	add    %esp,%eax
  2021fa:	83 08 00             	orl    $0x0,(%eax)
  2021fd:	89 e0                	mov    %esp,%eax
  2021ff:	83 c0 03             	add    $0x3,%eax
  202202:	c1 e8 02             	shr    $0x2,%eax
  202205:	c1 e0 02             	shl    $0x2,%eax
  202208:	89 45 b8             	mov    %eax,-0x48(%ebp)
  20220b:	8b 45 c0             	mov    -0x40(%ebp),%eax
  20220e:	89 45 e4             	mov    %eax,-0x1c(%ebp)
  202211:	c7 45 e0 00 00 00 00 	movl   $0x0,-0x20(%ebp)
  202218:	eb 61                	jmp    20227b <task_queue_head+0xf4273>
  20221a:	8b 45 e0             	mov    -0x20(%ebp),%eax
  20221d:	8d 14 85 00 00 00 00 	lea    0x0(,%eax,4),%edx
  202224:	8b 45 0c             	mov    0xc(%ebp),%eax
  202227:	01 d0                	add    %edx,%eax
  202229:	8b 00                	mov    (%eax),%eax
  20222b:	89 45 b4             	mov    %eax,-0x4c(%ebp)
  20222e:	c7 45 dc 00 00 00 00 	movl   $0x0,-0x24(%ebp)
  202235:	eb 04                	jmp    20223b <task_queue_head+0xf4233>
  202237:	83 45 dc 01          	addl   $0x1,-0x24(%ebp)
  20223b:	8b 55 b4             	mov    -0x4c(%ebp),%edx
  20223e:	8b 45 dc             	mov    -0x24(%ebp),%eax
  202241:	01 d0                	add    %edx,%eax
  202243:	0f b6 00             	movzbl (%eax),%eax
  202246:	84 c0                	test   %al,%al
  202248:	75 ed                	jne    202237 <task_queue_head+0xf422f>
  20224a:	8b 45 dc             	mov    -0x24(%ebp),%eax
  20224d:	83 c0 01             	add    $0x1,%eax
  202250:	83 ec 04             	sub    $0x4,%esp
  202253:	50                   	push   %eax
  202254:	ff 75 b4             	push   -0x4c(%ebp)
  202257:	ff 75 e4             	push   -0x1c(%ebp)
  20225a:	e8 64 f9 ff ff       	call   201bc3 <task_queue_head+0xf3bbb>
  20225f:	83 c4 10             	add    $0x10,%esp
  202262:	8b 45 b8             	mov    -0x48(%ebp),%eax
  202265:	8b 55 e0             	mov    -0x20(%ebp),%edx
  202268:	8b 4d e4             	mov    -0x1c(%ebp),%ecx
  20226b:	89 0c 90             	mov    %ecx,(%eax,%edx,4)
  20226e:	8b 45 dc             	mov    -0x24(%ebp),%eax
  202271:	83 c0 01             	add    $0x1,%eax
  202274:	01 45 e4             	add    %eax,-0x1c(%ebp)
  202277:	83 45 e0 01          	addl   $0x1,-0x20(%ebp)
  20227b:	8b 45 e0             	mov    -0x20(%ebp),%eax
  20227e:	3b 45 f0             	cmp    -0x10(%ebp),%eax
  202281:	7c 97                	jl     20221a <task_queue_head+0xf4212>
  202283:	8b 45 b8             	mov    -0x48(%ebp),%eax
  202286:	8b 55 f0             	mov    -0x10(%ebp),%edx
  202289:	c7 04 90 00 00 00 00 	movl   $0x0,(%eax,%edx,4)
  202290:	8b 45 f0             	mov    -0x10(%ebp),%eax
  202293:	83 c0 01             	add    $0x1,%eax
  202296:	c1 e0 02             	shl    $0x2,%eax
  202299:	29 45 c4             	sub    %eax,-0x3c(%ebp)
  20229c:	8b 45 f0             	mov    -0x10(%ebp),%eax
  20229f:	83 c0 01             	add    $0x1,%eax
  2022a2:	8d 14 85 00 00 00 00 	lea    0x0(,%eax,4),%edx
  2022a9:	8b 45 c4             	mov    -0x3c(%ebp),%eax
  2022ac:	83 ec 04             	sub    $0x4,%esp
  2022af:	52                   	push   %edx
  2022b0:	ff 75 b8             	push   -0x48(%ebp)
  2022b3:	50                   	push   %eax
  2022b4:	e8 0a f9 ff ff       	call   201bc3 <task_queue_head+0xf3bbb>
  2022b9:	83 c4 10             	add    $0x10,%esp
  2022bc:	8b 55 c4             	mov    -0x3c(%ebp),%edx
  2022bf:	8b 45 d4             	mov    -0x2c(%ebp),%eax
  2022c2:	89 50 44             	mov    %edx,0x44(%eax)
  2022c5:	83 6d c4 04          	subl   $0x4,-0x3c(%ebp)
  2022c9:	8b 45 c4             	mov    -0x3c(%ebp),%eax
  2022cc:	8b 55 f0             	mov    -0x10(%ebp),%edx
  2022cf:	89 10                	mov    %edx,(%eax)
  2022d1:	8b 45 d4             	mov    -0x2c(%ebp),%eax
  2022d4:	8b 55 f0             	mov    -0x10(%ebp),%edx
  2022d7:	89 50 40             	mov    %edx,0x40(%eax)
  2022da:	a1 0c 30 10 00       	mov    0x10300c,%eax
  2022df:	8d 50 01             	lea    0x1(%eax),%edx
  2022e2:	89 15 0c 30 10 00    	mov    %edx,0x10300c
  2022e8:	89 c2                	mov    %eax,%edx
  2022ea:	8b 45 d4             	mov    -0x2c(%ebp),%eax
  2022ed:	89 10                	mov    %edx,(%eax)
  2022ef:	8b 45 d4             	mov    -0x2c(%ebp),%eax
  2022f2:	c7 40 2c 01 00 00 00 	movl   $0x1,0x2c(%eax)
  2022f9:	8b 15 04 e0 10 00    	mov    0x10e004,%edx
  2022ff:	8b 45 d4             	mov    -0x2c(%ebp),%eax
  202302:	89 50 34             	mov    %edx,0x34(%eax)
  202305:	8b 45 d4             	mov    -0x2c(%ebp),%eax
  202308:	c7 40 38 00 00 00 00 	movl   $0x0,0x38(%eax)
  20230f:	8b 45 d4             	mov    -0x2c(%ebp),%eax
  202312:	83 c0 04             	add    $0x4,%eax
  202315:	83 ec 04             	sub    $0x4,%esp
  202318:	6a 28                	push   $0x28
  20231a:	6a 00                	push   $0x0
  20231c:	50                   	push   %eax
  20231d:	e8 e3 fa ff ff       	call   201e05 <task_queue_head+0xf3dfd>
  202322:	83 c4 10             	add    $0x10,%esp
  202325:	8b 45 d4             	mov    -0x2c(%ebp),%eax
  202328:	8b 55 d0             	mov    -0x30(%ebp),%edx
  20232b:	89 50 20             	mov    %edx,0x20(%eax)
  20232e:	8b 45 d4             	mov    -0x2c(%ebp),%eax
  202331:	8b 55 c4             	mov    -0x3c(%ebp),%edx
  202334:	89 50 24             	mov    %edx,0x24(%eax)
  202337:	8b 45 d4             	mov    -0x2c(%ebp),%eax
  20233a:	c7 40 1c 00 00 00 00 	movl   $0x0,0x1c(%eax)
  202341:	8b 45 d4             	mov    -0x2c(%ebp),%eax
  202344:	c7 40 28 02 02 00 00 	movl   $0x202,0x28(%eax)
  20234b:	a1 08 e0 10 00       	mov    0x10e008,%eax
  202350:	85 c0                	test   %eax,%eax
  202352:	75 13                	jne    202367 <task_queue_head+0xf435f>
  202354:	8b 45 d4             	mov    -0x2c(%ebp),%eax
  202357:	a3 08 e0 10 00       	mov    %eax,0x10e008
  20235c:	8b 45 d4             	mov    -0x2c(%ebp),%eax
  20235f:	8b 55 d4             	mov    -0x2c(%ebp),%edx
  202362:	89 50 30             	mov    %edx,0x30(%eax)
  202365:	eb 19                	jmp    202380 <task_queue_head+0xf4378>
  202367:	a1 08 e0 10 00       	mov    0x10e008,%eax
  20236c:	8b 50 30             	mov    0x30(%eax),%edx
  20236f:	8b 45 d4             	mov    -0x2c(%ebp),%eax
  202372:	89 50 30             	mov    %edx,0x30(%eax)
  202375:	a1 08 e0 10 00       	mov    0x10e008,%eax
  20237a:	8b 55 d4             	mov    -0x2c(%ebp),%edx
  20237d:	89 50 30             	mov    %edx,0x30(%eax)
  202380:	fb                   	sti
  202381:	8b 45 d4             	mov    -0x2c(%ebp),%eax
  202384:	8b 00                	mov    (%eax),%eax
  202386:	89 dc                	mov    %ebx,%esp
  202388:	8b 5d fc             	mov    -0x4(%ebp),%ebx
  20238b:	c9                   	leave
  20238c:	c3                   	ret
  20238d:	55                   	push   %ebp
  20238e:	89 e5                	mov    %esp,%ebp
  202390:	83 ec 18             	sub    $0x18,%esp
  202393:	a1 04 e0 10 00       	mov    0x10e004,%eax
  202398:	85 c0                	test   %eax,%eax
  20239a:	0f 84 10 01 00 00    	je     2024b0 <task_queue_head+0xf44a8>
  2023a0:	a1 04 e0 10 00       	mov    0x10e004,%eax
  2023a5:	89 45 f0             	mov    %eax,-0x10(%ebp)
  2023a8:	a1 04 e0 10 00       	mov    0x10e004,%eax
  2023ad:	8b 40 30             	mov    0x30(%eax),%eax
  2023b0:	89 45 f4             	mov    %eax,-0xc(%ebp)
  2023b3:	eb 4d                	jmp    202402 <task_queue_head+0xf43fa>
  2023b5:	a1 08 e0 10 00       	mov    0x10e008,%eax
  2023ba:	39 45 f4             	cmp    %eax,-0xc(%ebp)
  2023bd:	8b 45 f4             	mov    -0xc(%ebp),%eax
  2023c0:	8b 40 30             	mov    0x30(%eax),%eax
  2023c3:	89 45 f4             	mov    %eax,-0xc(%ebp)
  2023c6:	a1 04 e0 10 00       	mov    0x10e004,%eax
  2023cb:	39 45 f4             	cmp    %eax,-0xc(%ebp)
  2023ce:	75 32                	jne    202402 <task_queue_head+0xf43fa>
  2023d0:	a1 04 e0 10 00       	mov    0x10e004,%eax
  2023d5:	8b 40 2c             	mov    0x2c(%eax),%eax
  2023d8:	83 f8 02             	cmp    $0x2,%eax
  2023db:	74 1e                	je     2023fb <task_queue_head+0xf43f3>
  2023dd:	a1 04 e0 10 00       	mov    0x10e004,%eax
  2023e2:	8b 40 2c             	mov    0x2c(%eax),%eax
  2023e5:	83 f8 03             	cmp    $0x3,%eax
  2023e8:	74 11                	je     2023fb <task_queue_head+0xf43f3>
  2023ea:	a1 04 e0 10 00       	mov    0x10e004,%eax
  2023ef:	8b 40 2c             	mov    0x2c(%eax),%eax
  2023f2:	83 f8 04             	cmp    $0x4,%eax
  2023f5:	0f 85 b8 00 00 00    	jne    2024b3 <task_queue_head+0xf44ab>
  2023fb:	fa                   	cli
  2023fc:	f4                   	hlt
  2023fd:	e9 b2 00 00 00       	jmp    2024b4 <task_queue_head+0xf44ac>
  202402:	8b 45 f4             	mov    -0xc(%ebp),%eax
  202405:	8b 40 2c             	mov    0x2c(%eax),%eax
  202408:	83 f8 02             	cmp    $0x2,%eax
  20240b:	74 16                	je     202423 <task_queue_head+0xf441b>
  20240d:	8b 45 f4             	mov    -0xc(%ebp),%eax
  202410:	8b 40 2c             	mov    0x2c(%eax),%eax
  202413:	83 f8 03             	cmp    $0x3,%eax
  202416:	74 0b                	je     202423 <task_queue_head+0xf441b>
  202418:	8b 45 f4             	mov    -0xc(%ebp),%eax
  20241b:	8b 40 2c             	mov    0x2c(%eax),%eax
  20241e:	83 f8 04             	cmp    $0x4,%eax
  202421:	75 0a                	jne    20242d <task_queue_head+0xf4425>
  202423:	a1 04 e0 10 00       	mov    0x10e004,%eax
  202428:	39 45 f4             	cmp    %eax,-0xc(%ebp)
  20242b:	75 88                	jne    2023b5 <task_queue_head+0xf43ad>
  20242d:	8b 45 f0             	mov    -0x10(%ebp),%eax
  202430:	8b 40 2c             	mov    0x2c(%eax),%eax
  202433:	85 c0                	test   %eax,%eax
  202435:	75 0a                	jne    202441 <task_queue_head+0xf4439>
  202437:	8b 45 f0             	mov    -0x10(%ebp),%eax
  20243a:	c7 40 2c 01 00 00 00 	movl   $0x1,0x2c(%eax)
  202441:	8b 45 f4             	mov    -0xc(%ebp),%eax
  202444:	8b 40 2c             	mov    0x2c(%eax),%eax
  202447:	83 f8 02             	cmp    $0x2,%eax
  20244a:	74 16                	je     202462 <task_queue_head+0xf445a>
  20244c:	8b 45 f4             	mov    -0xc(%ebp),%eax
  20244f:	8b 40 2c             	mov    0x2c(%eax),%eax
  202452:	83 f8 03             	cmp    $0x3,%eax
  202455:	74 0b                	je     202462 <task_queue_head+0xf445a>
  202457:	8b 45 f4             	mov    -0xc(%ebp),%eax
  20245a:	8b 40 2c             	mov    0x2c(%eax),%eax
  20245d:	83 f8 04             	cmp    $0x4,%eax
  202460:	75 04                	jne    202466 <task_queue_head+0xf445e>
  202462:	fa                   	cli
  202463:	f4                   	hlt
  202464:	eb 4e                	jmp    2024b4 <task_queue_head+0xf44ac>
  202466:	8b 45 f4             	mov    -0xc(%ebp),%eax
  202469:	c7 40 2c 00 00 00 00 	movl   $0x0,0x2c(%eax)
  202470:	8b 45 f4             	mov    -0xc(%ebp),%eax
  202473:	a3 04 e0 10 00       	mov    %eax,0x10e004
  202478:	a1 04 e0 10 00       	mov    0x10e004,%eax
  20247d:	39 45 f0             	cmp    %eax,-0x10(%ebp)
  202480:	75 11                	jne    202493 <task_queue_head+0xf448b>
  202482:	a1 04 e0 10 00       	mov    0x10e004,%eax
  202487:	8b 40 2c             	mov    0x2c(%eax),%eax
  20248a:	83 f8 02             	cmp    $0x2,%eax
  20248d:	75 04                	jne    202493 <task_queue_head+0xf448b>
  20248f:	fa                   	cli
  202490:	f4                   	hlt
  202491:	eb 21                	jmp    2024b4 <task_queue_head+0xf44ac>
  202493:	a1 04 e0 10 00       	mov    0x10e004,%eax
  202498:	8d 50 04             	lea    0x4(%eax),%edx
  20249b:	8b 45 f0             	mov    -0x10(%ebp),%eax
  20249e:	83 c0 04             	add    $0x4,%eax
  2024a1:	83 ec 08             	sub    $0x8,%esp
  2024a4:	52                   	push   %edx
  2024a5:	50                   	push   %eax
  2024a6:	e8 55 de ff ff       	call   200300 <task_queue_head+0xf22f8>
  2024ab:	83 c4 10             	add    $0x10,%esp
  2024ae:	eb 04                	jmp    2024b4 <task_queue_head+0xf44ac>
  2024b0:	90                   	nop
  2024b1:	eb 01                	jmp    2024b4 <task_queue_head+0xf44ac>
  2024b3:	90                   	nop
  2024b4:	c9                   	leave
  2024b5:	c3                   	ret
  2024b6:	55                   	push   %ebp
  2024b7:	89 e5                	mov    %esp,%ebp
  2024b9:	83 ec 08             	sub    $0x8,%esp
  2024bc:	e8 cc fe ff ff       	call   20238d <task_queue_head+0xf4385>
  2024c1:	90                   	nop
  2024c2:	c9                   	leave
  2024c3:	c3                   	ret
  2024c4:	55                   	push   %ebp
  2024c5:	89 e5                	mov    %esp,%ebp
  2024c7:	83 ec 18             	sub    $0x18,%esp
  2024ca:	83 7d 08 00          	cmpl   $0x0,0x8(%ebp)
  2024ce:	74 58                	je     202528 <task_queue_head+0xf4520>
  2024d0:	b8 de 34 12 00       	mov    $0x1234de,%eax
  2024d5:	ba 00 00 00 00       	mov    $0x0,%edx
  2024da:	f7 75 08             	divl   0x8(%ebp)
  2024dd:	66 89 45 f6          	mov    %ax,-0xa(%ebp)
  2024e1:	83 ec 08             	sub    $0x8,%esp
  2024e4:	6a 36                	push   $0x36
  2024e6:	6a 43                	push   $0x43
  2024e8:	e8 af e4 ff ff       	call   20099c <task_queue_head+0xf2994>
  2024ed:	83 c4 10             	add    $0x10,%esp
  2024f0:	0f b7 45 f6          	movzwl -0xa(%ebp),%eax
  2024f4:	88 45 f5             	mov    %al,-0xb(%ebp)
  2024f7:	0f b6 45 f5          	movzbl -0xb(%ebp),%eax
  2024fb:	83 ec 08             	sub    $0x8,%esp
  2024fe:	50                   	push   %eax
  2024ff:	6a 40                	push   $0x40
  202501:	e8 96 e4 ff ff       	call   20099c <task_queue_head+0xf2994>
  202506:	83 c4 10             	add    $0x10,%esp
  202509:	0f b7 45 f6          	movzwl -0xa(%ebp),%eax
  20250d:	66 c1 e8 08          	shr    $0x8,%ax
  202511:	88 45 f4             	mov    %al,-0xc(%ebp)
  202514:	0f b6 45 f4          	movzbl -0xc(%ebp),%eax
  202518:	83 ec 08             	sub    $0x8,%esp
  20251b:	50                   	push   %eax
  20251c:	6a 40                	push   $0x40
  20251e:	e8 79 e4 ff ff       	call   20099c <task_queue_head+0xf2994>
  202523:	83 c4 10             	add    $0x10,%esp
  202526:	eb 01                	jmp    202529 <task_queue_head+0xf4521>
  202528:	90                   	nop
  202529:	c9                   	leave
  20252a:	c3                   	ret
  20252b:	55                   	push   %ebp
  20252c:	89 e5                	mov    %esp,%ebp
  20252e:	53                   	push   %ebx
  20252f:	83 ec 24             	sub    $0x24,%esp
  202532:	8b 45 08             	mov    0x8(%ebp),%eax
  202535:	89 45 f4             	mov    %eax,-0xc(%ebp)
  202538:	83 7d f4 00          	cmpl   $0x0,-0xc(%ebp)
  20253c:	74 09                	je     202547 <task_queue_head+0xf453f>
  20253e:	a1 04 e0 10 00       	mov    0x10e004,%eax
  202543:	85 c0                	test   %eax,%eax
  202545:	75 1b                	jne    202562 <task_queue_head+0xf455a>
  202547:	83 7d f4 00          	cmpl   $0x0,-0xc(%ebp)
  20254b:	0f 84 fd 01 00 00    	je     20274e <task_queue_head+0xf4746>
  202551:	8b 45 f4             	mov    -0xc(%ebp),%eax
  202554:	83 c0 2c             	add    $0x2c,%eax
  202557:	c7 00 ff ff ff ff    	movl   $0xffffffff,(%eax)
  20255d:	e9 ec 01 00 00       	jmp    20274e <task_queue_head+0xf4746>
  202562:	8b 45 f4             	mov    -0xc(%ebp),%eax
  202565:	8b 40 2c             	mov    0x2c(%eax),%eax
  202568:	89 45 f0             	mov    %eax,-0x10(%ebp)
  20256b:	83 7d f0 05          	cmpl   $0x5,-0x10(%ebp)
  20256f:	0f 84 4b 01 00 00    	je     2026c0 <task_queue_head+0xf46b8>
  202575:	83 7d f0 05          	cmpl   $0x5,-0x10(%ebp)
  202579:	0f 87 c1 01 00 00    	ja     202740 <task_queue_head+0xf4738>
  20257f:	83 7d f0 04          	cmpl   $0x4,-0x10(%ebp)
  202583:	0f 84 d2 00 00 00    	je     20265b <task_queue_head+0xf4653>
  202589:	83 7d f0 04          	cmpl   $0x4,-0x10(%ebp)
  20258d:	0f 87 ad 01 00 00    	ja     202740 <task_queue_head+0xf4738>
  202593:	83 7d f0 00          	cmpl   $0x0,-0x10(%ebp)
  202597:	74 0b                	je     2025a4 <task_queue_head+0xf459c>
  202599:	83 7d f0 01          	cmpl   $0x1,-0x10(%ebp)
  20259d:	74 7e                	je     20261d <task_queue_head+0xf4615>
  20259f:	e9 9c 01 00 00       	jmp    202740 <task_queue_head+0xf4738>
  2025a4:	a1 04 e0 10 00       	mov    0x10e004,%eax
  2025a9:	c7 40 2c 02 00 00 00 	movl   $0x2,0x2c(%eax)
  2025b0:	a1 04 e0 10 00       	mov    0x10e004,%eax
  2025b5:	8b 40 34             	mov    0x34(%eax),%eax
  2025b8:	85 c0                	test   %eax,%eax
  2025ba:	74 57                	je     202613 <task_queue_head+0xf460b>
  2025bc:	a1 04 e0 10 00       	mov    0x10e004,%eax
  2025c1:	8b 40 34             	mov    0x34(%eax),%eax
  2025c4:	8b 40 2c             	mov    0x2c(%eax),%eax
  2025c7:	83 f8 04             	cmp    $0x4,%eax
  2025ca:	75 47                	jne    202613 <task_queue_head+0xf460b>
  2025cc:	a1 04 e0 10 00       	mov    0x10e004,%eax
  2025d1:	8b 40 34             	mov    0x34(%eax),%eax
  2025d4:	8b 50 38             	mov    0x38(%eax),%edx
  2025d7:	a1 04 e0 10 00       	mov    0x10e004,%eax
  2025dc:	8b 00                	mov    (%eax),%eax
  2025de:	39 c2                	cmp    %eax,%edx
  2025e0:	75 31                	jne    202613 <task_queue_head+0xf460b>
  2025e2:	a1 04 e0 10 00       	mov    0x10e004,%eax
  2025e7:	8b 40 34             	mov    0x34(%eax),%eax
  2025ea:	c7 40 2c 01 00 00 00 	movl   $0x1,0x2c(%eax)
  2025f1:	8b 45 f4             	mov    -0xc(%ebp),%eax
  2025f4:	83 c0 20             	add    $0x20,%eax
  2025f7:	8b 10                	mov    (%eax),%edx
  2025f9:	a1 04 e0 10 00       	mov    0x10e004,%eax
  2025fe:	8b 40 34             	mov    0x34(%eax),%eax
  202601:	89 50 3c             	mov    %edx,0x3c(%eax)
  202604:	a1 04 e0 10 00       	mov    0x10e004,%eax
  202609:	8b 40 34             	mov    0x34(%eax),%eax
  20260c:	c7 40 38 00 00 00 00 	movl   $0x0,0x38(%eax)
  202613:	e8 75 fd ff ff       	call   20238d <task_queue_head+0xf4385>
  202618:	e9 32 01 00 00       	jmp    20274f <task_queue_head+0xf4747>
  20261d:	0f b6 05 04 30 10 00 	movzbl 0x103004,%eax
  202624:	0f be d8             	movsbl %al,%ebx
  202627:	8b 0d 04 b0 10 00    	mov    0x10b004,%ecx
  20262d:	8b 15 00 b0 10 00    	mov    0x10b000,%edx
  202633:	8b 45 f4             	mov    -0xc(%ebp),%eax
  202636:	83 c0 20             	add    $0x20,%eax
  202639:	8b 00                	mov    (%eax),%eax
  20263b:	0f be c0             	movsbl %al,%eax
  20263e:	53                   	push   %ebx
  20263f:	51                   	push   %ecx
  202640:	52                   	push   %edx
  202641:	50                   	push   %eax
  202642:	e8 e8 dc ff ff       	call   20032f <task_queue_head+0xf2327>
  202647:	83 c4 10             	add    $0x10,%esp
  20264a:	8b 45 f4             	mov    -0xc(%ebp),%eax
  20264d:	83 c0 2c             	add    $0x2c,%eax
  202650:	c7 00 00 00 00 00    	movl   $0x0,(%eax)
  202656:	e9 f4 00 00 00       	jmp    20274f <task_queue_head+0xf4747>
  20265b:	8b 45 f4             	mov    -0xc(%ebp),%eax
  20265e:	83 c0 20             	add    $0x20,%eax
  202661:	8b 00                	mov    (%eax),%eax
  202663:	89 45 e0             	mov    %eax,-0x20(%ebp)
  202666:	8b 45 f4             	mov    -0xc(%ebp),%eax
  202669:	8b 40 28             	mov    0x28(%eax),%eax
  20266c:	89 45 dc             	mov    %eax,-0x24(%ebp)
  20266f:	83 7d e0 00          	cmpl   $0x0,-0x20(%ebp)
  202673:	74 06                	je     20267b <task_queue_head+0xf4673>
  202675:	83 7d dc 00          	cmpl   $0x0,-0x24(%ebp)
  202679:	75 11                	jne    20268c <task_queue_head+0xf4684>
  20267b:	8b 45 f4             	mov    -0xc(%ebp),%eax
  20267e:	83 c0 2c             	add    $0x2c,%eax
  202681:	c7 00 ff ff ff ff    	movl   $0xffffffff,(%eax)
  202687:	e9 c3 00 00 00       	jmp    20274f <task_queue_head+0xf4747>
  20268c:	83 ec 08             	sub    $0x8,%esp
  20268f:	ff 75 dc             	push   -0x24(%ebp)
  202692:	ff 75 e0             	push   -0x20(%ebp)
  202695:	e8 1c eb ff ff       	call   2011b6 <task_queue_head+0xf31ae>
  20269a:	83 c4 10             	add    $0x10,%esp
  20269d:	a1 04 e0 10 00       	mov    0x10e004,%eax
  2026a2:	c7 40 2c 03 00 00 00 	movl   $0x3,0x2c(%eax)
  2026a9:	e8 df fc ff ff       	call   20238d <task_queue_head+0xf4385>
  2026ae:	8b 45 f4             	mov    -0xc(%ebp),%eax
  2026b1:	8d 58 2c             	lea    0x2c(%eax),%ebx
  2026b4:	e8 36 ed ff ff       	call   2013ef <task_queue_head+0xf33e7>
  2026b9:	89 03                	mov    %eax,(%ebx)
  2026bb:	e9 8f 00 00 00       	jmp    20274f <task_queue_head+0xf4747>
  2026c0:	8b 45 f4             	mov    -0xc(%ebp),%eax
  2026c3:	83 c0 20             	add    $0x20,%eax
  2026c6:	8b 00                	mov    (%eax),%eax
  2026c8:	89 45 ec             	mov    %eax,-0x14(%ebp)
  2026cb:	8b 45 f4             	mov    -0xc(%ebp),%eax
  2026ce:	83 c0 28             	add    $0x28,%eax
  2026d1:	8b 00                	mov    (%eax),%eax
  2026d3:	89 45 e8             	mov    %eax,-0x18(%ebp)
  2026d6:	83 7d ec 00          	cmpl   $0x0,-0x14(%ebp)
  2026da:	75 0e                	jne    2026ea <task_queue_head+0xf46e2>
  2026dc:	8b 45 f4             	mov    -0xc(%ebp),%eax
  2026df:	83 c0 2c             	add    $0x2c,%eax
  2026e2:	c7 00 ff ff ff ff    	movl   $0xffffffff,(%eax)
  2026e8:	eb 65                	jmp    20274f <task_queue_head+0xf4747>
  2026ea:	83 ec 08             	sub    $0x8,%esp
  2026ed:	ff 75 e8             	push   -0x18(%ebp)
  2026f0:	ff 75 ec             	push   -0x14(%ebp)
  2026f3:	e8 15 f9 ff ff       	call   20200d <task_queue_head+0xf4005>
  2026f8:	83 c4 10             	add    $0x10,%esp
  2026fb:	89 45 e4             	mov    %eax,-0x1c(%ebp)
  2026fe:	83 7d e4 00          	cmpl   $0x0,-0x1c(%ebp)
  202702:	79 0e                	jns    202712 <task_queue_head+0xf470a>
  202704:	8b 45 f4             	mov    -0xc(%ebp),%eax
  202707:	83 c0 2c             	add    $0x2c,%eax
  20270a:	c7 00 ff ff ff ff    	movl   $0xffffffff,(%eax)
  202710:	eb 3d                	jmp    20274f <task_queue_head+0xf4747>
  202712:	a1 04 e0 10 00       	mov    0x10e004,%eax
  202717:	c7 40 2c 04 00 00 00 	movl   $0x4,0x2c(%eax)
  20271e:	a1 04 e0 10 00       	mov    0x10e004,%eax
  202723:	8b 55 e4             	mov    -0x1c(%ebp),%edx
  202726:	89 50 38             	mov    %edx,0x38(%eax)
  202729:	e8 5f fc ff ff       	call   20238d <task_queue_head+0xf4385>
  20272e:	a1 04 e0 10 00       	mov    0x10e004,%eax
  202733:	8b 50 3c             	mov    0x3c(%eax),%edx
  202736:	8b 45 f4             	mov    -0xc(%ebp),%eax
  202739:	83 c0 2c             	add    $0x2c,%eax
  20273c:	89 10                	mov    %edx,(%eax)
  20273e:	eb 0f                	jmp    20274f <task_queue_head+0xf4747>
  202740:	8b 45 f4             	mov    -0xc(%ebp),%eax
  202743:	83 c0 2c             	add    $0x2c,%eax
  202746:	c7 00 ff ff ff ff    	movl   $0xffffffff,(%eax)
  20274c:	eb 01                	jmp    20274f <task_queue_head+0xf4747>
  20274e:	90                   	nop
  20274f:	8b 5d fc             	mov    -0x4(%ebp),%ebx
  202752:	c9                   	leave
  202753:	c3                   	ret
  202754:	55                   	push   %ebp
  202755:	89 e5                	mov    %esp,%ebp
  202757:	83 ec 08             	sub    $0x8,%esp
  20275a:	b8 d0 29 10 00       	mov    $0x1029d0,%eax
  20275f:	68 ee 00 00 00       	push   $0xee
  202764:	6a 08                	push   $0x8
  202766:	50                   	push   %eax
  202767:	68 80 00 00 00       	push   $0x80
  20276c:	e8 6a e1 ff ff       	call   2008db <task_queue_head+0xf28d3>
  202771:	83 c4 10             	add    $0x10,%esp
  202774:	90                   	nop
  202775:	c9                   	leave
  202776:	c3                   	ret
  202777:	55                   	push   %ebp
  202778:	89 e5                	mov    %esp,%ebp
  20277a:	83 ec 10             	sub    $0x10,%esp
  20277d:	8b 45 08             	mov    0x8(%ebp),%eax
  202780:	89 45 f8             	mov    %eax,-0x8(%ebp)
  202783:	8b 45 0c             	mov    0xc(%ebp),%eax
  202786:	89 45 f4             	mov    %eax,-0xc(%ebp)
  202789:	c7 45 fc 00 00 00 00 	movl   $0x0,-0x4(%ebp)
  202790:	eb 19                	jmp    2027ab <task_queue_head+0xf47a3>
  202792:	8b 55 f4             	mov    -0xc(%ebp),%edx
  202795:	8b 45 fc             	mov    -0x4(%ebp),%eax
  202798:	01 d0                	add    %edx,%eax
  20279a:	8b 4d f8             	mov    -0x8(%ebp),%ecx
  20279d:	8b 55 fc             	mov    -0x4(%ebp),%edx
  2027a0:	01 ca                	add    %ecx,%edx
  2027a2:	0f b6 00             	movzbl (%eax),%eax
  2027a5:	88 02                	mov    %al,(%edx)
  2027a7:	83 45 fc 01          	addl   $0x1,-0x4(%ebp)
  2027ab:	8b 45 fc             	mov    -0x4(%ebp),%eax
  2027ae:	3b 45 10             	cmp    0x10(%ebp),%eax
  2027b1:	72 df                	jb     202792 <task_queue_head+0xf478a>
  2027b3:	8b 45 08             	mov    0x8(%ebp),%eax
  2027b6:	c9                   	leave
  2027b7:	c3                   	ret
  2027b8:	55                   	push   %ebp
  2027b9:	89 e5                	mov    %esp,%ebp
  2027bb:	83 ec 10             	sub    $0x10,%esp
  2027be:	8b 45 08             	mov    0x8(%ebp),%eax
  2027c1:	89 45 fc             	mov    %eax,-0x4(%ebp)
  2027c4:	eb 0e                	jmp    2027d4 <task_queue_head+0xf47cc>
  2027c6:	8b 45 fc             	mov    -0x4(%ebp),%eax
  2027c9:	8d 50 01             	lea    0x1(%eax),%edx
  2027cc:	89 55 fc             	mov    %edx,-0x4(%ebp)
  2027cf:	8b 55 0c             	mov    0xc(%ebp),%edx
  2027d2:	88 10                	mov    %dl,(%eax)
  2027d4:	8b 45 10             	mov    0x10(%ebp),%eax
  2027d7:	8d 50 ff             	lea    -0x1(%eax),%edx
  2027da:	89 55 10             	mov    %edx,0x10(%ebp)
  2027dd:	85 c0                	test   %eax,%eax
  2027df:	75 e5                	jne    2027c6 <task_queue_head+0xf47be>
  2027e1:	8b 45 08             	mov    0x8(%ebp),%eax
  2027e4:	c9                   	leave
  2027e5:	c3                   	ret
  2027e6:	55                   	push   %ebp
  2027e7:	89 e5                	mov    %esp,%ebp
  2027e9:	83 ec 48             	sub    $0x48,%esp
  2027ec:	83 7d 08 00          	cmpl   $0x0,0x8(%ebp)
  2027f0:	75 0a                	jne    2027fc <task_queue_head+0xf47f4>
  2027f2:	b8 00 00 00 00       	mov    $0x0,%eax
  2027f7:	e9 c3 01 00 00       	jmp    2029bf <task_queue_head+0xf49b7>
  2027fc:	8b 45 08             	mov    0x8(%ebp),%eax
  2027ff:	89 45 ec             	mov    %eax,-0x14(%ebp)
  202802:	8b 45 ec             	mov    -0x14(%ebp),%eax
  202805:	0f b6 00             	movzbl (%eax),%eax
  202808:	3c 7f                	cmp    $0x7f,%al
  20280a:	75 21                	jne    20282d <task_queue_head+0xf4825>
  20280c:	8b 45 ec             	mov    -0x14(%ebp),%eax
  20280f:	0f b6 40 01          	movzbl 0x1(%eax),%eax
  202813:	3c 45                	cmp    $0x45,%al
  202815:	75 16                	jne    20282d <task_queue_head+0xf4825>
  202817:	8b 45 ec             	mov    -0x14(%ebp),%eax
  20281a:	0f b6 40 02          	movzbl 0x2(%eax),%eax
  20281e:	3c 4c                	cmp    $0x4c,%al
  202820:	75 0b                	jne    20282d <task_queue_head+0xf4825>
  202822:	8b 45 ec             	mov    -0x14(%ebp),%eax
  202825:	0f b6 40 03          	movzbl 0x3(%eax),%eax
  202829:	3c 46                	cmp    $0x46,%al
  20282b:	74 0a                	je     202837 <task_queue_head+0xf482f>
  20282d:	b8 00 00 00 00       	mov    $0x0,%eax
  202832:	e9 88 01 00 00       	jmp    2029bf <task_queue_head+0xf49b7>
  202837:	8b 45 ec             	mov    -0x14(%ebp),%eax
  20283a:	0f b6 40 04          	movzbl 0x4(%eax),%eax
  20283e:	3c 01                	cmp    $0x1,%al
  202840:	74 0a                	je     20284c <task_queue_head+0xf4844>
  202842:	b8 00 00 00 00       	mov    $0x0,%eax
  202847:	e9 73 01 00 00       	jmp    2029bf <task_queue_head+0xf49b7>
  20284c:	8b 45 ec             	mov    -0x14(%ebp),%eax
  20284f:	0f b6 40 05          	movzbl 0x5(%eax),%eax
  202853:	3c 01                	cmp    $0x1,%al
  202855:	74 0a                	je     202861 <task_queue_head+0xf4859>
  202857:	b8 00 00 00 00       	mov    $0x0,%eax
  20285c:	e9 5e 01 00 00       	jmp    2029bf <task_queue_head+0xf49b7>
  202861:	8b 45 ec             	mov    -0x14(%ebp),%eax
  202864:	0f b7 40 10          	movzwl 0x10(%eax),%eax
  202868:	66 83 f8 02          	cmp    $0x2,%ax
  20286c:	74 0a                	je     202878 <task_queue_head+0xf4870>
  20286e:	b8 00 00 00 00       	mov    $0x0,%eax
  202873:	e9 47 01 00 00       	jmp    2029bf <task_queue_head+0xf49b7>
  202878:	8b 45 ec             	mov    -0x14(%ebp),%eax
  20287b:	0f b7 40 12          	movzwl 0x12(%eax),%eax
  20287f:	66 83 f8 03          	cmp    $0x3,%ax
  202883:	74 0a                	je     20288f <task_queue_head+0xf4887>
  202885:	b8 00 00 00 00       	mov    $0x0,%eax
  20288a:	e9 30 01 00 00       	jmp    2029bf <task_queue_head+0xf49b7>
  20288f:	8b 45 ec             	mov    -0x14(%ebp),%eax
  202892:	8b 50 1c             	mov    0x1c(%eax),%edx
  202895:	8b 45 08             	mov    0x8(%ebp),%eax
  202898:	01 d0                	add    %edx,%eax
  20289a:	89 45 e8             	mov    %eax,-0x18(%ebp)
  20289d:	c7 45 f4 00 00 00 00 	movl   $0x0,-0xc(%ebp)
  2028a4:	e9 fd 00 00 00       	jmp    2029a6 <task_queue_head+0xf499e>
  2028a9:	8b 45 f4             	mov    -0xc(%ebp),%eax
  2028ac:	c1 e0 05             	shl    $0x5,%eax
  2028af:	89 c2                	mov    %eax,%edx
  2028b1:	8b 45 e8             	mov    -0x18(%ebp),%eax
  2028b4:	01 d0                	add    %edx,%eax
  2028b6:	89 45 e4             	mov    %eax,-0x1c(%ebp)
  2028b9:	8b 45 e4             	mov    -0x1c(%ebp),%eax
  2028bc:	8b 00                	mov    (%eax),%eax
  2028be:	83 f8 01             	cmp    $0x1,%eax
  2028c1:	0f 85 db 00 00 00    	jne    2029a2 <task_queue_head+0xf499a>
  2028c7:	8b 45 e4             	mov    -0x1c(%ebp),%eax
  2028ca:	8b 40 08             	mov    0x8(%eax),%eax
  2028cd:	89 45 e0             	mov    %eax,-0x20(%ebp)
  2028d0:	8b 45 e4             	mov    -0x1c(%ebp),%eax
  2028d3:	8b 40 14             	mov    0x14(%eax),%eax
  2028d6:	89 45 dc             	mov    %eax,-0x24(%ebp)
  2028d9:	8b 45 e4             	mov    -0x1c(%ebp),%eax
  2028dc:	8b 40 10             	mov    0x10(%eax),%eax
  2028df:	89 45 d8             	mov    %eax,-0x28(%ebp)
  2028e2:	8b 45 e4             	mov    -0x1c(%ebp),%eax
  2028e5:	8b 50 04             	mov    0x4(%eax),%edx
  2028e8:	8b 45 08             	mov    0x8(%ebp),%eax
  2028eb:	01 d0                	add    %edx,%eax
  2028ed:	89 45 d4             	mov    %eax,-0x2c(%ebp)
  2028f0:	83 7d dc 00          	cmpl   $0x0,-0x24(%ebp)
  2028f4:	0f 84 a7 00 00 00    	je     2029a1 <task_queue_head+0xf4999>
  2028fa:	8b 45 e0             	mov    -0x20(%ebp),%eax
  2028fd:	25 00 f0 ff ff       	and    $0xfffff000,%eax
  202902:	89 45 d0             	mov    %eax,-0x30(%ebp)
  202905:	8b 55 e0             	mov    -0x20(%ebp),%edx
  202908:	8b 45 dc             	mov    -0x24(%ebp),%eax
  20290b:	01 d0                	add    %edx,%eax
  20290d:	83 e8 01             	sub    $0x1,%eax
  202910:	89 45 cc             	mov    %eax,-0x34(%ebp)
  202913:	8b 45 cc             	mov    -0x34(%ebp),%eax
  202916:	25 00 f0 ff ff       	and    $0xfffff000,%eax
  20291b:	89 45 c8             	mov    %eax,-0x38(%ebp)
  20291e:	8b 45 d0             	mov    -0x30(%ebp),%eax
  202921:	89 45 f0             	mov    %eax,-0x10(%ebp)
  202924:	eb 31                	jmp    202957 <task_queue_head+0xf494f>
  202926:	e8 56 ec ff ff       	call   201581 <task_queue_head+0xf3579>
  20292b:	89 45 c4             	mov    %eax,-0x3c(%ebp)
  20292e:	83 7d c4 00          	cmpl   $0x0,-0x3c(%ebp)
  202932:	75 0a                	jne    20293e <task_queue_head+0xf4936>
  202934:	b8 00 00 00 00       	mov    $0x0,%eax
  202939:	e9 81 00 00 00       	jmp    2029bf <task_queue_head+0xf49b7>
  20293e:	8b 45 f0             	mov    -0x10(%ebp),%eax
  202941:	83 ec 08             	sub    $0x8,%esp
  202944:	ff 75 c4             	push   -0x3c(%ebp)
  202947:	50                   	push   %eax
  202948:	e8 9e ee ff ff       	call   2017eb <task_queue_head+0xf37e3>
  20294d:	83 c4 10             	add    $0x10,%esp
  202950:	81 45 f0 00 10 00 00 	addl   $0x1000,-0x10(%ebp)
  202957:	8b 45 f0             	mov    -0x10(%ebp),%eax
  20295a:	39 45 c8             	cmp    %eax,-0x38(%ebp)
  20295d:	73 c7                	jae    202926 <task_queue_head+0xf491e>
  20295f:	83 7d d8 00          	cmpl   $0x0,-0x28(%ebp)
  202963:	74 15                	je     20297a <task_queue_head+0xf4972>
  202965:	8b 45 e0             	mov    -0x20(%ebp),%eax
  202968:	83 ec 04             	sub    $0x4,%esp
  20296b:	ff 75 d8             	push   -0x28(%ebp)
  20296e:	ff 75 d4             	push   -0x2c(%ebp)
  202971:	50                   	push   %eax
  202972:	e8 00 fe ff ff       	call   202777 <task_queue_head+0xf476f>
  202977:	83 c4 10             	add    $0x10,%esp
  20297a:	8b 45 dc             	mov    -0x24(%ebp),%eax
  20297d:	39 45 d8             	cmp    %eax,-0x28(%ebp)
  202980:	73 20                	jae    2029a2 <task_queue_head+0xf499a>
  202982:	8b 45 dc             	mov    -0x24(%ebp),%eax
  202985:	2b 45 d8             	sub    -0x28(%ebp),%eax
  202988:	8b 4d e0             	mov    -0x20(%ebp),%ecx
  20298b:	8b 55 d8             	mov    -0x28(%ebp),%edx
  20298e:	01 ca                	add    %ecx,%edx
  202990:	83 ec 04             	sub    $0x4,%esp
  202993:	50                   	push   %eax
  202994:	6a 00                	push   $0x0
  202996:	52                   	push   %edx
  202997:	e8 1c fe ff ff       	call   2027b8 <task_queue_head+0xf47b0>
  20299c:	83 c4 10             	add    $0x10,%esp
  20299f:	eb 01                	jmp    2029a2 <task_queue_head+0xf499a>
  2029a1:	90                   	nop
  2029a2:	83 45 f4 01          	addl   $0x1,-0xc(%ebp)
  2029a6:	8b 45 ec             	mov    -0x14(%ebp),%eax
  2029a9:	0f b7 40 2c          	movzwl 0x2c(%eax),%eax
  2029ad:	0f b7 c0             	movzwl %ax,%eax
  2029b0:	39 45 f4             	cmp    %eax,-0xc(%ebp)
  2029b3:	0f 8c f0 fe ff ff    	jl     2028a9 <task_queue_head+0xf48a1>
  2029b9:	8b 45 ec             	mov    -0x14(%ebp),%eax
  2029bc:	8b 40 18             	mov    0x18(%eax),%eax
  2029bf:	c9                   	leave
  2029c0:	c3                   	ret
  2029c1:	66 90                	xchg   %ax,%ax
  2029c3:	66 90                	xchg   %ax,%ax
  2029c5:	66 90                	xchg   %ax,%ax
  2029c7:	66 90                	xchg   %ax,%ax
  2029c9:	66 90                	xchg   %ax,%ax
  2029cb:	66 90                	xchg   %ax,%ax
  2029cd:	66 90                	xchg   %ax,%ax
  2029cf:	90                   	nop
  2029d0:	60                   	pusha
  2029d1:	1e                   	push   %ds
  2029d2:	06                   	push   %es
  2029d3:	0f a0                	push   %fs
  2029d5:	0f a8                	push   %gs
  2029d7:	66 b8 10 00          	mov    $0x10,%ax
  2029db:	8e d8                	mov    %eax,%ds
  2029dd:	8e c0                	mov    %eax,%es
  2029df:	8e e0                	mov    %eax,%fs
  2029e1:	8e e8                	mov    %eax,%gs
  2029e3:	54                   	push   %esp
  2029e4:	89 e0                	mov    %esp,%eax
  2029e6:	83 c0 10             	add    $0x10,%eax
  2029e9:	54                   	push   %esp
  2029ea:	e8 3c fb ff ff       	call   20252b <task_queue_head+0xf4523>
  2029ef:	83 c4 04             	add    $0x4,%esp
  2029f2:	0f a9                	pop    %gs
  2029f4:	0f a1                	pop    %fs
  2029f6:	07                   	pop    %es
  2029f7:	1f                   	pop    %ds
  2029f8:	61                   	popa
  2029f9:	cf                   	iret
  2029fa:	66 90                	xchg   %ax,%ax
  2029fc:	4b                   	dec    %ebx
  2029fd:	4d                   	dec    %ebp
  2029fe:	41                   	inc    %ecx
  2029ff:	49                   	dec    %ecx
  202a00:	4e                   	dec    %esi
  202a01:	5f                   	pop    %edi
  202a02:	43                   	inc    %ebx
  202a03:	41                   	inc    %ecx
  202a04:	4c                   	dec    %esp
  202a05:	4c                   	dec    %esp
  202a06:	45                   	inc    %ebp
  202a07:	44                   	inc    %esp
  202a08:	5f                   	pop    %edi
  202a09:	45                   	inc    %ebp
  202a0a:	41                   	inc    %ecx
  202a0b:	52                   	push   %edx
  202a0c:	4c                   	dec    %esp
  202a0d:	59                   	pop    %ecx
  202a0e:	5f                   	pop    %edi
  202a0f:	44                   	inc    %esp
  202a10:	45                   	inc    %ebp
  202a11:	42                   	inc    %edx
  202a12:	55                   	push   %ebp
  202a13:	47                   	inc    %edi
  202a14:	0a 00                	or     (%eax),%al
  202a16:	00 00                	add    %al,(%eax)
  202a18:	6b 6d 61 69          	imul   $0x69,0x61(%ebp),%ebp
  202a1c:	6e                   	outsb  %ds:(%esi),(%dx)
  202a1d:	3a 20                	cmp    (%eax),%ah
  202a1f:	70 68                	jo     202a89 <task_queue_head+0xf4a81>
  202a21:	79 73                	jns    202a96 <task_queue_head+0xf4a8e>
  202a23:	69 63 61 6c 5f 70 64 	imul   $0x64705f6c,0x61(%ebx),%esp
  202a2a:	5f                   	pop    %edi
  202a2b:	61                   	popa
  202a2c:	64 64 72 20          	fs fs jb 202a50 <task_queue_head+0xf4a48>
  202a30:	28 69 6e             	sub    %ch,0x6e(%ecx)
  202a33:	74 65                	je     202a9a <task_queue_head+0xf4a92>
  202a35:	6e                   	outsb  %ds:(%esi),(%dx)
  202a36:	64 65 64 20 43 52    	fs gs and %al,%fs:0x52(%ebx)
  202a3c:	33 20                	xor    (%eax),%esp
  202a3e:	66 72 6f             	data16 jb 202ab0 <task_queue_head+0xf4aa8>
  202a41:	6d                   	insl   (%dx),%es:(%edi)
  202a42:	20 62 6f             	and    %ah,0x6f(%edx)
  202a45:	6f                   	outsl  %ds:(%esi),(%dx)
  202a46:	74 2e                	je     202a76 <task_queue_head+0xf4a6e>
  202a48:	73 29                	jae    202a73 <task_queue_head+0xf4a6b>
  202a4a:	20 3d 20 00 0a 00    	and    %bh,0xa0020
  202a50:	6b 6d 61 69          	imul   $0x69,0x61(%ebp),%ebp
  202a54:	6e                   	outsb  %ds:(%esi),(%dx)
  202a55:	3a 20                	cmp    (%eax),%ah
  202a57:	43                   	inc    %ebx
  202a58:	52                   	push   %edx
  202a59:	33 20                	xor    (%eax),%esp
  202a5b:	72 65                	jb     202ac2 <task_queue_head+0xf4aba>
  202a5d:	61                   	popa
  202a5e:	64 20 62 61          	and    %ah,%fs:0x61(%edx)
  202a62:	63 6b 20             	arpl   %ebp,0x20(%ebx)
  202a65:	61                   	popa
  202a66:	66 74 65             	data16 je 202ace <task_queue_head+0xf4ac6>
  202a69:	72 20                	jb     202a8b <task_queue_head+0xf4a83>
  202a6b:	73 65                	jae    202ad2 <task_queue_head+0xf4aca>
  202a6d:	74 20                	je     202a8f <task_queue_head+0xf4a87>
  202a6f:	3d 20 00 6b 6d       	cmp    $0x6d6b0020,%eax
  202a74:	61                   	popa
  202a75:	69 6e 3a 20 43 52 33 	imul   $0x33524320,0x3a(%esi),%ebp
  202a7c:	20 62 65             	and    %ah,0x65(%edx)
  202a7f:	66 6f                	outsw  %ds:(%esi),(%dx)
  202a81:	72 65                	jb     202ae8 <task_queue_head+0xf4ae0>
  202a83:	20 70 6d             	and    %dh,0x6d(%eax)
  202a86:	6d                   	insl   (%dx),%es:(%edi)
  202a87:	5f                   	pop    %edi
  202a88:	69 6e 69 74 20 3d 20 	imul   $0x203d2074,0x69(%esi),%ebp
  202a8f:	00 6b 6d             	add    %ch,0x6d(%ebx)
  202a92:	61                   	popa
  202a93:	69 6e 3a 20 43 52 33 	imul   $0x33524320,0x3a(%esi),%ebp
  202a9a:	20 62 65             	and    %ah,0x65(%edx)
  202a9d:	66 6f                	outsw  %ds:(%esi),(%dx)
  202a9f:	72 65                	jb     202b06 <task_queue_head+0xf4afe>
  202aa1:	20 76 6d             	and    %dh,0x6d(%esi)
  202aa4:	6d                   	insl   (%dx),%es:(%edi)
  202aa5:	5f                   	pop    %edi
  202aa6:	69 6e 69 74 20 3d 20 	imul   $0x203d2074,0x69(%esi),%ebp
  202aad:	00 00                	add    %al,(%eax)
  202aaf:	00 47 65             	add    %al,0x65(%edi)
  202ab2:	73 74                	jae    202b28 <task_queue_head+0xf4b20>
  202ab4:	69 6f 6e 6e 61 69 72 	imul   $0x7269616e,0x6e(%edi),%ebp
  202abb:	65 73 20             	gs jae 202ade <task_queue_head+0xf4ad6>
  202abe:	50                   	push   %eax
  202abf:	4d                   	dec    %ebp
  202ac0:	4d                   	dec    %ebp
  202ac1:	20 65 74             	and    %ah,0x74(%ebp)
  202ac4:	20 56 4d             	and    %dl,0x4d(%esi)
  202ac7:	4d                   	dec    %ebp
  202ac8:	20 69 6e             	and    %ch,0x6e(%ecx)
  202acb:	69 74 69 61 6c 69 73 	imul   $0x6573696c,0x61(%ecx,%ebp,2),%esi
  202ad2:	65
  202ad3:	73 2e                	jae    202b03 <task_queue_head+0xf4afb>
  202ad5:	0a 00                	or     (%eax),%al
  202ad7:	49                   	dec    %ecx
  202ad8:	6e                   	outsb  %ds:(%esi),(%dx)
  202ad9:	69 74 72 64 20 69 6e 	imul   $0x696e6920,0x64(%edx,%esi,2),%esi
  202ae0:	69
  202ae1:	74 69                	je     202b4c <task_queue_head+0xf4b44>
  202ae3:	61                   	popa
  202ae4:	6c                   	insb   (%dx),%es:(%edi)
  202ae5:	69 73 65 2e 20 43 6f 	imul   $0x6f43202e,0x65(%ebx),%esi
  202aec:	6e                   	outsb  %ds:(%esi),(%dx)
  202aed:	74 65                	je     202b54 <task_queue_head+0xf4b4c>
  202aef:	6e                   	outsb  %ds:(%esi),(%dx)
  202af0:	75 3a                	jne    202b2c <task_queue_head+0xf4b24>
  202af2:	0a 00                	or     (%eax),%al
  202af4:	49                   	dec    %ecx
  202af5:	6e                   	outsb  %ds:(%esi),(%dx)
  202af6:	69 74 72 64 20 6e 6f 	imul   $0x6e6f6e20,0x64(%edx,%esi,2),%esi
  202afd:	6e
  202afe:	20 74 72 6f          	and    %dh,0x6f(%edx,%esi,2)
  202b02:	75 76                	jne    202b7a <task_queue_head+0xf4b72>
  202b04:	65 2e 20 41 72       	gs and %al,%cs:0x72(%ecx)
  202b09:	72 65                	jb     202b70 <task_queue_head+0xf4b68>
  202b0b:	74 2e                	je     202b3b <task_queue_head+0xf4b33>
  202b0d:	0a 00                	or     (%eax),%al
  202b0f:	00 49 44             	add    %cl,0x44(%ecx)
  202b12:	54                   	push   %esp
  202b13:	2c 20                	sub    $0x20,%al
  202b15:	50                   	push   %eax
  202b16:	49                   	dec    %ecx
  202b17:	43                   	inc    %ebx
  202b18:	20 65 74             	and    %ah,0x74(%ebp)
  202b1b:	20 53 79             	and    %dl,0x79(%ebx)
  202b1e:	73 63                	jae    202b83 <task_queue_head+0xf4b7b>
  202b20:	61                   	popa
  202b21:	6c                   	insb   (%dx),%es:(%edi)
  202b22:	6c                   	insb   (%dx),%es:(%edi)
  202b23:	73 20                	jae    202b45 <task_queue_head+0xf4b3d>
  202b25:	69 6e 69 74 69 61 6c 	imul   $0x6c616974,0x69(%esi),%ebp
  202b2c:	69 73 65 73 2e 0a 00 	imul   $0xa2e73,0x65(%ebx),%esi
  202b33:	4d                   	dec    %ebp
  202b34:	75 6c                	jne    202ba2 <task_queue_head+0xf4b9a>
  202b36:	74 69                	je     202ba1 <task_queue_head+0xf4b99>
  202b38:	74 61                	je     202b9b <task_queue_head+0xf4b93>
  202b3a:	63 68 65             	arpl   %ebp,0x65(%eax)
  202b3d:	20 69 6e             	and    %ch,0x6e(%ecx)
  202b40:	69 74 69 61 6c 69 73 	imul   $0x6573696c,0x61(%ecx,%ebp,2),%esi
  202b47:	65
  202b48:	2e 0a 00             	or     %cs:(%eax),%al
  202b4b:	4c                   	dec    %esp
  202b4c:	61                   	popa
  202b4d:	6e                   	outsb  %ds:(%esi),(%dx)
  202b4e:	63 65 6d             	arpl   %esp,0x6d(%ebp)
  202b51:	65 6e                	outsb  %gs:(%esi),(%dx)
  202b53:	74 20                	je     202b75 <task_queue_head+0xf4b6d>
  202b55:	64 75 20             	fs jne 202b78 <task_queue_head+0xf4b70>
  202b58:	73 68                	jae    202bc2 <task_queue_head+0xf4bba>
  202b5a:	65 6c                	gs insb (%dx),%es:(%edi)
  202b5c:	6c                   	insb   (%dx),%es:(%edi)
  202b5d:	2e 2e 2e 0a 00       	cs cs or %cs:(%eax),%al
  202b62:	73 68                	jae    202bcc <task_queue_head+0xf4bc4>
  202b64:	65 6c                	gs insb (%dx),%es:(%edi)
  202b66:	6c                   	insb   (%dx),%es:(%edi)
  202b67:	2e 62 69 6e          	bound  %ebp,%cs:0x6e(%ecx)
  202b6b:	00 45 63             	add    %al,0x63(%ebp)
  202b6e:	68 65 63 20 64       	push   $0x64206365
  202b73:	75 20                	jne    202b95 <task_queue_head+0xf4b8d>
  202b75:	6c                   	insb   (%dx),%es:(%edi)
  202b76:	61                   	popa
  202b77:	6e                   	outsb  %ds:(%esi),(%dx)
  202b78:	63 65 6d             	arpl   %esp,0x6d(%ebp)
  202b7b:	65 6e                	outsb  %gs:(%esi),(%dx)
  202b7d:	74 20                	je     202b9f <task_queue_head+0xf4b97>
  202b7f:	64 65 20 73 68       	fs and %dh,%gs:0x68(%ebx)
  202b84:	65 6c                	gs insb (%dx),%es:(%edi)
  202b86:	6c                   	insb   (%dx),%es:(%edi)
  202b87:	2e 62 69 6e          	bound  %ebp,%cs:0x6e(%ecx)
  202b8b:	2e 20 41 72          	and    %al,%cs:0x72(%ecx)
  202b8f:	72 65                	jb     202bf6 <task_queue_head+0xf4bee>
  202b91:	74 2e                	je     202bc1 <task_queue_head+0xf4bb9>
  202b93:	0a 00                	or     (%eax),%al
  202b95:	73 68                	jae    202bff <task_queue_head+0xf4bf7>
  202b97:	65 6c                	gs insb (%dx),%es:(%edi)
  202b99:	6c                   	insb   (%dx),%es:(%edi)
  202b9a:	2e 62 69 6e          	bound  %ebp,%cs:0x6e(%ecx)
  202b9e:	20 6c 61 6e          	and    %ch,0x6e(%ecx,%eiz,2)
  202ba2:	63 65 20             	arpl   %esp,0x20(%ebp)
  202ba5:	61                   	popa
  202ba6:	76 65                	jbe    202c0d <task_queue_head+0xf4c05>
  202ba8:	63 20                	arpl   %esp,(%eax)
  202baa:	50                   	push   %eax
  202bab:	49                   	dec    %ecx
  202bac:	44                   	inc    %esp
  202bad:	3a 20                	cmp    (%eax),%ah
  202baf:	00 5b 50             	add    %bl,0x50(%ebx)
  202bb2:	49                   	dec    %ecx
  202bb3:	44                   	inc    %esp
  202bb4:	20 61 66             	and    %ah,0x66(%ecx)
  202bb7:	66 69 63 68 61 67    	imul   $0x6761,0x68(%ebx),%sp
  202bbd:	65 20 6e 6f          	and    %ch,%gs:0x6f(%esi)
  202bc1:	6e                   	outsb  %ds:(%esi),(%dx)
  202bc2:	20 69 6d             	and    %ch,0x6d(%ecx)
  202bc5:	70 6c                	jo     202c33 <task_queue_head+0xf4c2b>
  202bc7:	65 6d                	gs insl (%dx),%es:(%edi)
  202bc9:	65 6e                	outsb  %gs:(%esi),(%dx)
  202bcb:	74 65                	je     202c32 <task_queue_head+0xf4c2a>
  202bcd:	5d                   	pop    %ebp
  202bce:	0a 00                	or     (%eax),%al
  202bd0:	54                   	push   %esp
  202bd1:	69 6d 65 72 20 73 79 	imul   $0x79732072,0x65(%ebp),%ebp
  202bd8:	73 74                	jae    202c4e <task_queue_head+0xf4c46>
  202bda:	65 6d                	gs insl (%dx),%es:(%edi)
  202bdc:	65 20 61 63          	and    %ah,%gs:0x63(%ecx)
  202be0:	74 69                	je     202c4b <task_queue_head+0xf4c43>
  202be2:	76 65                	jbe    202c49 <task_queue_head+0xf4c41>
  202be4:	20 61 20             	and    %ah,0x20(%ecx)
  202be7:	31 30                	xor    %esi,(%eax)
  202be9:	30 48 7a             	xor    %cl,0x7a(%eax)
  202bec:	2e 0a 00             	or     %cs:(%eax),%al
  202bef:	00 53 79             	add    %dl,0x79(%ebx)
  202bf2:	73 74                	jae    202c68 <task_queue_head+0xf4c60>
  202bf4:	65 6d                	gs insl (%dx),%es:(%edi)
  202bf6:	65 20 41 49          	and    %al,%gs:0x49(%ecx)
  202bfa:	2d 4f 53 20 6f       	sub    $0x6f20534f,%eax
  202bff:	70 65                	jo     202c66 <task_queue_head+0xf4c5e>
  202c01:	72 61                	jb     202c64 <task_queue_head+0xf4c5c>
  202c03:	74 69                	je     202c6e <task_queue_head+0xf4c66>
  202c05:	6f                   	outsl  %ds:(%esi),(%dx)
  202c06:	6e                   	outsb  %ds:(%esi),(%dx)
  202c07:	6e                   	outsb  %ds:(%esi),(%dx)
  202c08:	65 6c                	gs insb (%dx),%es:(%edi)
  202c0a:	2e 20 50 61          	and    %dl,%cs:0x61(%eax)
  202c0e:	73 73                	jae    202c83 <task_queue_head+0xf4c7b>
  202c10:	61                   	popa
  202c11:	67 65 20 61 75       	and    %ah,%gs:0x75(%bx,%di)
  202c16:	20 6d 6f             	and    %ch,0x6f(%ebp)
  202c19:	64 65 20 69 64       	fs and %ch,%gs:0x64(%ecx)
  202c1e:	6c                   	insb   (%dx),%es:(%edi)
  202c1f:	65 2e 0a 00          	gs or  %cs:(%eax),%al
  202c23:	66 90                	xchg   %ax,%ax
  202c25:	66 90                	xchg   %ax,%ax
  202c27:	66 90                	xchg   %ax,%ax
  202c29:	66 90                	xchg   %ax,%ax
  202c2b:	66 90                	xchg   %ax,%ax
  202c2d:	66 90                	xchg   %ax,%ax
  202c2f:	66 90                	xchg   %ax,%ax
  202c31:	66 90                	xchg   %ax,%ax
  202c33:	66 90                	xchg   %ax,%ax
  202c35:	66 90                	xchg   %ax,%ax
  202c37:	66 90                	xchg   %ax,%ax
  202c39:	66 90                	xchg   %ax,%ax
  202c3b:	66 90                	xchg   %ax,%ax
  202c3d:	66 90                	xchg   %ax,%ax
  202c3f:	90                   	nop
  202c40:	00 1b                	add    %bl,(%ebx)
  202c42:	31 32                	xor    %esi,(%edx)
  202c44:	33 34 35 36 37 38 39 	xor    0x39383736(,%esi,1),%esi
  202c4b:	30 2d 3d 08 09 71    	xor    %ch,0x7109083d
  202c51:	77 65                	ja     202cb8 <task_queue_head+0xf4cb0>
  202c53:	72 74                	jb     202cc9 <task_queue_head+0xf4cc1>
  202c55:	79 75                	jns    202ccc <task_queue_head+0xf4cc4>
  202c57:	69 6f 70 5b 5d 0a 00 	imul   $0xa5d5b,0x70(%edi),%ebp
  202c5e:	61                   	popa
  202c5f:	73 64                	jae    202cc5 <task_queue_head+0xf4cbd>
  202c61:	66 67 68 6a 6b       	addr16 pushw $0x6b6a
  202c66:	6c                   	insb   (%dx),%es:(%edi)
  202c67:	3b 27                	cmp    (%edi),%esp
  202c69:	60                   	pusha
  202c6a:	00 5c 7a 78          	add    %bl,0x78(%edx,%edi,2)
  202c6e:	63 76 62             	arpl   %esi,0x62(%esi)
  202c71:	6e                   	outsb  %ds:(%esi),(%dx)
  202c72:	6d                   	insl   (%dx),%es:(%edi)
  202c73:	2c 2e                	sub    $0x2e,%al
  202c75:	2f                   	das
  202c76:	00 2a                	add    %ch,(%edx)
  202c78:	00 20                	add    %ah,(%eax)
	...
  202c8a:	2d 00 00 00 2b       	sub    $0x2b000000,%eax
	...
  202c97:	00 00                	add    %al,(%eax)
  202c99:	00 56 4d             	add    %dl,0x4d(%esi)
  202c9c:	4d                   	dec    %ebp
  202c9d:	20 50 4d             	and    %dl,0x4d(%eax)
  202ca0:	4d                   	dec    %ebp
  202ca1:	20 50 54             	and    %dl,0x54(%eax)
  202ca4:	20 41 4c             	and    %al,0x4c(%ecx)
  202ca7:	4c                   	dec    %esp
  202ca8:	4f                   	dec    %edi
  202ca9:	43                   	inc    %ebx
  202caa:	20 46 41             	and    %al,0x41(%esi)
  202cad:	49                   	dec    %ecx
  202cae:	4c                   	dec    %esp
  202caf:	00 49 6e             	add    %cl,0x6e(%ecx)
  202cb2:	69 74 72 64 20 6e 6f 	imul   $0x6e6f6e20,0x64(%edx,%esi,2),%esi
  202cb9:	6e
  202cba:	20 69 6e             	and    %ch,0x6e(%ecx)
  202cbd:	69 74 69 61 6c 69 73 	imul   $0xc373696c,0x61(%ecx,%ebp,2),%esi
  202cc4:	c3
  202cc5:	a9 2e 0a 00 00       	test   $0xa2e,%eax
  202cca:	00 00                	add    %al,(%eax)
  202ccc:	48                   	dec    %eax
  202ccd:	65 61                	gs popa
  202ccf:	64 65 72 20          	fs gs jb 202cf3 <task_queue_head+0xf4ceb>
  202cd3:	54                   	push   %esp
  202cd4:	41                   	inc    %ecx
  202cd5:	52                   	push   %edx
  202cd6:	20 69 6e             	and    %ch,0x6e(%ecx)
  202cd9:	76 61                	jbe    202d3c <task_queue_head+0xf4d34>
  202cdb:	6c                   	insb   (%dx),%es:(%edi)
  202cdc:	69 64 65 20 6f 75 20 	imul   $0x6620756f,0x20(%ebp,%eiz,2),%esp
  202ce3:	66
  202ce4:	69 6e 20 6e 6f 6e 20 	imul   $0x206e6f6e,0x20(%esi),%ebp
  202ceb:	73 74                	jae    202d61 <task_queue_head+0xf4d59>
  202ced:	61                   	popa
  202cee:	6e                   	outsb  %ds:(%esi),(%dx)
  202cef:	64 61                	fs popa
  202cf1:	72 64                	jb     202d57 <task_queue_head+0xf4d4f>
  202cf3:	20 64 65 20          	and    %ah,0x20(%ebp,%eiz,2)
  202cf7:	6c                   	insb   (%dx),%es:(%edi)
  202cf8:	27                   	daa
  202cf9:	61                   	popa
  202cfa:	72 63                	jb     202d5f <task_queue_head+0xf4d57>
  202cfc:	68 69 76 65 2e       	push   $0x2e657669
  202d01:	0a 00                	or     (%eax),%al
  202d03:	46                   	inc    %esi
  202d04:	69 63 68 69 65 72 3a 	imul   $0x3a726569,0x68(%ebx),%esp
  202d0b:	20 00                	and    %al,(%eax)
  202d0d:	20 28                	and    %ch,(%eax)
  202d0f:	74 79                	je     202d8a <task_queue_head+0xf4d82>
  202d11:	70 65                	jo     202d78 <task_queue_head+0xf4d70>
  202d13:	3a 20                	cmp    (%eax),%ah
  202d15:	00 29                	add    %ch,(%ecx)
  202d17:	0a 00                	or     (%eax),%al
  202d19:	00 00                	add    %al,(%eax)
  202d1b:	00 44 c3 a9          	add    %al,-0x57(%ebx,%eax,8)
  202d1f:	70 61                	jo     202d82 <task_queue_head+0xf4d7a>
  202d21:	73 73                	jae    202d96 <task_queue_head+0xf4d8e>
  202d23:	65 6d                	gs insl (%dx),%es:(%edi)
  202d25:	65 6e                	outsb  %gs:(%esi),(%dx)
  202d27:	74 20                	je     202d49 <task_queue_head+0xf4d41>
  202d29:	64 65 20 6c 61 20    	fs and %ch,%gs:0x20(%ecx,%eiz,2)
  202d2f:	74 61                	je     202d92 <task_queue_head+0xf4d8a>
  202d31:	69 6c 6c 65 20 6d 61 	imul   $0x78616d20,0x65(%esp,%ebp,2),%ebp
  202d38:	78
  202d39:	20 64 65 20          	and    %ah,0x20(%ebp,%eiz,2)
  202d3d:	6c                   	insb   (%dx),%es:(%edi)
  202d3e:	27                   	daa
  202d3f:	69 6e 69 74 72 64 20 	imul   $0x20647274,0x69(%esi),%ebp
  202d46:	6c                   	insb   (%dx),%es:(%edi)
  202d47:	6f                   	outsl  %ds:(%esi),(%dx)
  202d48:	72 73                	jb     202dbd <task_queue_head+0xf4db5>
  202d4a:	20 64 75 20          	and    %ah,0x20(%ebp,%esi,2)
  202d4e:	6c                   	insb   (%dx),%es:(%edi)
  202d4f:	69 73 74 61 67 65 2e 	imul   $0x2e656761,0x74(%ebx),%esi
  202d56:	0a 00                	or     (%eax),%al
  202d58:	30 78 00             	xor    %bh,0x0(%eax)
  202d5b:	90                   	nop
  202d5c:	1b 00                	sbb    (%eax),%eax
  202d5e:	23 00                	and    (%eax),%eax
